(lp0
((I1
S' '
p1
tp2
S'E'
p3
tp4
a((I2
g1
tp5
S'V'
p6
tp7
a((I3
g1
tp8
S'Q'
p9
tp10
a((I4
g1
tp11
S'L'
p12
tp13
a((I5
g1
tp14
g6
tp15
a((I6
g1
tp16
g9
tp17
a((I7
g1
tp18
S'S'
p19
tp20
a((I8
g1
tp21
S'G'
p22
tp23
a((I9
g1
tp24
S'A'
p25
tp26
a((I10
g1
tp27
g3
tp28
a((I11
g1
tp29
g6
tp30
a((I12
g1
tp31
S'K'
p32
tp33
a((I13
g1
tp34
g32
tp35
a((I14
g1
tp36
S'P'
p37
tp38
a((I15
g1
tp39
g22
tp40
a((I16
g1
tp41
g3
tp42
a((I17
g1
tp43
g19
tp44
a((I18
g1
tp45
g12
tp46
a((I19
g1
tp47
S'R'
p48
tp49
a((I20
g1
tp50
S'I'
p51
tp52
a((I21
g1
tp53
g19
tp54
a((I22
g1
tp55
S'C'
p56
tp57
a((I23
g1
tp58
g32
tp59
a((I24
g1
tp60
g22
tp61
a((I25
g1
tp62
g19
tp63
a((I26
g1
tp64
g22
tp65
a((I27
g1
tp66
S'Y'
p67
tp68
a((I28
g1
tp69
g19
tp70
a((I29
g1
tp71
S'F'
p72
tp73
a((I30
g1
tp74
S'T'
p75
tp76
a((I31
g1
tp77
g19
tp78
a((I32
g1
tp79
g67
tp80
a((I33
g1
tp81
S'W'
p82
tp83
a((I34
g1
tp84
g51
tp85
a((I35
g1
tp86
g19
tp87
a((I36
g1
tp88
g82
tp89
a((I37
g1
tp90
g6
tp91
a((I38
g1
tp92
g48
tp93
a((I39
g1
tp94
g9
tp95
a((I40
g1
tp96
S'M'
p97
tp98
a((I41
g1
tp99
g37
tp100
a((I42
g1
tp101
g22
tp102
a((I43
g1
tp103
g32
tp104
a((I44
g1
tp105
g22
tp106
a((I45
g1
tp107
g12
tp108
a((I46
g1
tp109
g3
tp110
a((I47
g1
tp111
g82
tp112
a((I48
g1
tp113
g97
tp114
a((I49
g1
tp115
g22
tp116
a((I50
g1
tp117
g48
tp118
a((I51
g1
tp119
g51
tp120
a((I52
g1
tp121
S'D'
p122
tp123
a((I52
g25
tp124
g37
tp125
a((I53
g1
tp126
g19
tp127
a((I54
g1
tp128
g122
tp129
a((I55
g1
tp130
g19
tp131
a((I56
g1
tp132
g67
tp133
a((I57
g1
tp134
g75
tp135
a((I58
g1
tp136
S'N'
p137
tp138
a((I59
g1
tp139
g67
tp140
a((I60
g1
tp141
g19
tp142
a((I61
g1
tp143
g37
tp144
a((I62
g1
tp145
g19
tp146
a((I63
g1
tp147
g72
tp148
a((I64
g1
tp149
g9
tp150
a((I65
g1
tp151
g22
tp152
a((I66
g1
tp153
S'H'
p154
tp155
a((I67
g1
tp156
g6
tp157
a((I68
g1
tp158
g75
tp159
a((I69
g1
tp160
g51
tp161
a((I70
g1
tp162
g19
tp163
a((I71
g1
tp164
g25
tp165
a((I72
g1
tp166
g122
tp167
a((I73
g1
tp168
g32
tp169
a((I74
g1
tp170
g19
tp171
a((I75
g1
tp172
g51
tp173
a((I76
g1
tp174
g19
tp175
a((I77
g1
tp176
g75
tp177
a((I78
g1
tp178
g25
tp179
a((I79
g1
tp180
g67
tp181
a((I80
g1
tp182
g12
tp183
a((I81
g1
tp184
g9
tp185
a((I82
g1
tp186
g82
tp187
a((I82
g25
tp188
g19
tp189
a((I82
S'B'
p190
tp191
g19
tp192
a((I82
g56
tp193
g12
tp194
a((I83
g1
tp195
g32
tp196
a((I84
g1
tp197
g25
tp198
a((I85
g1
tp199
g19
tp200
a((I86
g1
tp201
g122
tp202
a((I87
g1
tp203
g75
tp204
a((I88
g1
tp205
g25
tp206
a((I89
g1
tp207
g97
tp208
a((I90
g1
tp209
g67
tp210
a((I91
g1
tp211
g67
tp212
a((I92
g1
tp213
g56
tp214
a((I93
g1
tp215
g25
tp216
a((I94
g1
tp217
g48
tp218
a((I95
g1
tp219
g67
tp220
a((I96
g1
tp221
g82
tp222
a((I97
g1
tp223
g67
tp224
a((I98
g1
tp225
g72
tp226
a((I101
g1
tp227
g122
tp228
a((I102
g1
tp229
g12
tp230
a((I103
g1
tp231
g82
tp232
a((I104
g1
tp233
g22
tp234
a((I105
g1
tp235
g48
tp236
a((I106
g1
tp237
g22
tp238
a((I107
g1
tp239
g75
tp240
a((I108
g1
tp241
g12
tp242
a((I109
g1
tp243
g6
tp244
a((I110
g1
tp245
g75
tp246
a((I111
g1
tp247
g6
tp248
a((I112
g1
tp249
g19
tp250
a((I113
g1
tp251
g19
tp252
a.