(lp0
((I1
S' '
p1
tp2
S'Q'
p3
tp4
a((I2
g1
tp5
S'V'
p6
tp7
a((I3
g1
tp8
g3
tp9
a((I4
g1
tp10
S'L'
p11
tp12
a((I5
g1
tp13
g3
tp14
a((I6
g1
tp15
g3
tp16
a((I7
g1
tp17
S'W'
p18
tp19
a((I8
g1
tp20
S'G'
p21
tp22
a((I9
g1
tp23
S'A'
p24
tp25
a((I10
g1
tp26
g21
tp27
a((I11
g1
tp28
g11
tp29
a((I12
g1
tp30
g11
tp31
a((I13
g1
tp32
S'K'
p33
tp34
a((I14
g1
tp35
S'P'
p36
tp37
a((I15
g1
tp38
S'S'
p39
tp40
a((I16
g1
tp41
S'E'
p42
tp43
a((I17
g1
tp44
S'T'
p45
tp46
a((I18
g1
tp47
g11
tp48
a((I19
g1
tp49
g39
tp50
a((I20
g1
tp51
g11
tp52
a((I21
g1
tp53
g45
tp54
a((I22
g1
tp55
S'C'
p56
tp57
a((I23
g1
tp58
g24
tp59
a((I24
g1
tp60
g6
tp61
a((I25
g1
tp62
S'Y'
p63
tp64
a((I26
g1
tp65
g21
tp66
a((I27
g1
tp67
g21
tp68
a((I28
g1
tp69
g39
tp70
a((I29
g1
tp71
S'F'
p72
tp73
a((I30
g1
tp74
g39
tp75
a((I31
g1
tp76
g21
tp77
a((I32
g1
tp78
g63
tp79
a((I33
g1
tp80
g63
tp81
a((I34
g1
tp82
g18
tp83
a((I35
g1
tp84
g39
tp85
a((I36
g1
tp86
g18
tp87
a((I37
g1
tp88
S'I'
p89
tp90
a((I38
g1
tp91
S'R'
p92
tp93
a((I39
g1
tp94
g3
tp95
a((I40
g1
tp96
g36
tp97
a((I41
g1
tp98
g36
tp99
a((I42
g1
tp100
g21
tp101
a((I43
g1
tp102
g33
tp103
a((I44
g1
tp104
g21
tp105
a((I45
g1
tp106
g11
tp107
a((I46
g1
tp108
g42
tp109
a((I47
g1
tp110
g18
tp111
a((I48
g1
tp112
g89
tp113
a((I49
g1
tp114
g21
tp115
a((I50
g1
tp116
g42
tp117
a((I51
g1
tp118
g89
tp119
a((I52
g1
tp120
S'N'
p121
tp122
a((I53
g1
tp123
S'H'
p124
tp125
a((I54
g1
tp126
g39
tp127
a((I55
g1
tp128
g21
tp129
a((I56
g1
tp130
g39
tp131
a((I57
g1
tp132
g45
tp133
a((I58
g1
tp134
g121
tp135
a((I59
g1
tp136
g63
tp137
a((I60
g1
tp138
g121
tp139
a((I61
g1
tp140
g36
tp141
a((I62
g1
tp142
g39
tp143
a((I63
g1
tp144
g11
tp145
a((I64
g1
tp146
g33
tp147
a((I65
g1
tp148
g39
tp149
a((I66
g1
tp150
g92
tp151
a((I67
g1
tp152
g6
tp153
a((I68
g1
tp154
g45
tp155
a((I69
g1
tp156
g89
tp157
a((I70
g1
tp158
g39
tp159
a((I71
g1
tp160
g6
tp161
a((I72
g1
tp162
S'D'
p163
tp164
a((I73
g1
tp165
g45
tp166
a((I74
g1
tp167
g39
tp168
a((I75
g1
tp169
g33
tp170
a((I76
g1
tp171
g121
tp172
a((I77
g1
tp173
g3
tp174
a((I78
g1
tp175
g72
tp176
a((I79
g1
tp177
g39
tp178
a((I80
g1
tp179
g11
tp180
a((I81
g1
tp181
g33
tp182
a((I82
g1
tp183
g11
tp184
a((I82
g24
tp185
g39
tp186
a((I82
S'B'
p187
tp188
g39
tp189
a((I82
g56
tp190
g6
tp191
a((I83
g1
tp192
g45
tp193
a((I84
g1
tp194
g24
tp195
a((I85
g1
tp196
g24
tp197
a((I86
g1
tp198
g163
tp199
a((I87
g1
tp200
g45
tp201
a((I88
g1
tp202
g24
tp203
a((I89
g1
tp204
g6
tp205
a((I90
g1
tp206
g63
tp207
a((I91
g1
tp208
g63
tp209
a((I92
g1
tp210
g56
tp211
a((I93
g1
tp212
g24
tp213
a((I94
g1
tp214
g92
tp215
a((I95
g1
tp216
g24
tp217
a((I96
g1
tp218
g42
tp219
a((I97
g1
tp220
g63
tp221
a((I98
g1
tp222
g72
tp223
a((I101
g1
tp224
g3
tp225
a((I102
g1
tp226
g124
tp227
a((I103
g1
tp228
g18
tp229
a((I104
g1
tp230
g21
tp231
a((I105
g1
tp232
g3
tp233
a((I106
g1
tp234
g21
tp235
a((I107
g1
tp236
g45
tp237
a((I108
g1
tp238
g11
tp239
a((I109
g1
tp240
g6
tp241
a((I110
g1
tp242
g45
tp243
a((I111
g1
tp244
g6
tp245
a((I112
g1
tp246
g39
tp247
a((I113
g1
tp248
g39
tp249
a.