(lp0
((I1
S' '
p1
tp2
S'Q'
p3
tp4
a((I2
g1
tp5
S'V'
p6
tp7
a((I3
g1
tp8
g3
tp9
a((I4
g1
tp10
S'L'
p11
tp12
a((I5
g1
tp13
g6
tp14
a((I6
g1
tp15
S'E'
p16
tp17
a((I7
g1
tp18
S'S'
p19
tp20
a((I8
g1
tp21
S'G'
p22
tp23
a((I9
g1
tp24
g22
tp25
a((I10
g1
tp26
g22
tp27
a((I11
g1
tp28
g6
tp29
a((I12
g1
tp30
g6
tp31
a((I13
g1
tp32
g3
tp33
a((I14
g1
tp34
S'P'
p35
tp36
a((I15
g1
tp37
g22
tp38
a((I16
g1
tp39
S'R'
p40
tp41
a((I17
g1
tp42
g19
tp43
a((I18
g1
tp44
g11
tp45
a((I19
g1
tp46
g40
tp47
a((I20
g1
tp48
g11
tp49
a((I21
g1
tp50
g19
tp51
a((I22
g1
tp52
S'C'
p53
tp54
a((I23
g1
tp55
S'A'
p56
tp57
a((I24
g1
tp58
g56
tp59
a((I25
g1
tp60
g19
tp61
a((I26
g1
tp62
g22
tp63
a((I27
g1
tp64
S'F'
p65
tp66
a((I28
g1
tp67
S'T'
p68
tp69
a((I29
g1
tp70
g65
tp71
a((I30
g1
tp72
g19
tp73
a((I31
g1
tp74
g19
tp75
a((I32
g1
tp76
S'Y'
p77
tp78
a((I33
g1
tp79
g56
tp80
a((I34
g1
tp81
S'M'
p82
tp83
a((I35
g1
tp84
S'H'
p85
tp86
a((I36
g1
tp87
S'W'
p88
tp89
a((I37
g1
tp90
g6
tp91
a((I38
g1
tp92
g40
tp93
a((I39
g1
tp94
g3
tp95
a((I40
g1
tp96
g56
tp97
a((I41
g1
tp98
g35
tp99
a((I42
g1
tp100
g22
tp101
a((I43
g1
tp102
S'K'
p103
tp104
a((I44
g1
tp105
g22
tp106
a((I45
g1
tp107
g11
tp108
a((I46
g1
tp109
g16
tp110
a((I47
g1
tp111
g88
tp112
a((I48
g1
tp113
g6
tp114
a((I49
g1
tp115
g56
tp116
a((I50
g1
tp117
g6
tp118
a((I51
g1
tp119
S'I'
p120
tp121
a((I52
g1
tp122
g19
tp123
a((I52
g56
tp124
g77
tp125
a((I53
g1
tp126
S'D'
p127
tp128
a((I54
g1
tp129
g22
tp130
a((I55
g1
tp131
g19
tp132
a((I56
g1
tp133
S'N'
p134
tp135
a((I57
g1
tp136
g103
tp137
a((I58
g1
tp138
g77
tp139
a((I59
g1
tp140
g77
tp141
a((I60
g1
tp142
g56
tp143
a((I61
g1
tp144
g127
tp145
a((I62
g1
tp146
g19
tp147
a((I63
g1
tp148
g6
tp149
a((I64
g1
tp150
g103
tp151
a((I65
g1
tp152
g22
tp153
a((I66
g1
tp154
g40
tp155
a((I67
g1
tp156
g65
tp157
a((I68
g1
tp158
g68
tp159
a((I69
g1
tp160
g120
tp161
a((I70
g1
tp162
g19
tp163
a((I71
g1
tp164
g40
tp165
a((I72
g1
tp166
g127
tp167
a((I73
g1
tp168
g134
tp169
a((I74
g1
tp170
g19
tp171
a((I75
g1
tp172
g103
tp173
a((I76
g1
tp174
g134
tp175
a((I77
g1
tp176
g68
tp177
a((I78
g1
tp178
g11
tp179
a((I79
g1
tp180
g77
tp181
a((I80
g1
tp182
g11
tp183
a((I81
g1
tp184
g3
tp185
a((I82
g1
tp186
g82
tp187
a((I82
g56
tp188
g134
tp189
a((I82
S'B'
p190
tp191
g19
tp192
a((I82
g53
tp193
g11
tp194
a((I83
g1
tp195
g40
tp196
a((I84
g1
tp197
g56
tp198
a((I85
g1
tp199
g16
tp200
a((I86
g1
tp201
g127
tp202
a((I87
g1
tp203
g68
tp204
a((I88
g1
tp205
g56
tp206
a((I89
g1
tp207
g6
tp208
a((I90
g1
tp209
g77
tp210
a((I91
g1
tp211
g77
tp212
a((I92
g1
tp213
g53
tp214
a((I93
g1
tp215
g56
tp216
a((I94
g1
tp217
g40
tp218
a((I95
g1
tp219
g77
tp220
a((I96
g1
tp221
g65
tp222
a((I101
g1
tp223
g127
tp224
a((I102
g1
tp225
g77
tp226
a((I103
g1
tp227
g88
tp228
a((I104
g1
tp229
g22
tp230
a((I105
g1
tp231
g3
tp232
a((I106
g1
tp233
g22
tp234
a((I107
g1
tp235
g68
tp236
a((I108
g1
tp237
g11
tp238
a((I109
g1
tp239
g6
tp240
a((I110
g1
tp241
g68
tp242
a((I111
g1
tp243
g6
tp244
a((I112
g1
tp245
g19
tp246
a((I113
g1
tp247
g19
tp248
a.