(lp0
((I1
S' '
p1
tp2
S'E'
p3
tp4
a((I2
g1
tp5
S'V'
p6
tp7
a((I3
g1
tp8
S'Q'
p9
tp10
a((I4
g1
tp11
S'L'
p12
tp13
a((I5
g1
tp14
g12
tp15
a((I6
g1
tp16
g3
tp17
a((I7
g1
tp18
S'S'
p19
tp20
a((I8
g1
tp21
S'G'
p22
tp23
a((I9
g1
tp24
g22
tp25
a((I10
g1
tp26
g22
tp27
a((I11
g1
tp28
g12
tp29
a((I12
g1
tp30
g6
tp31
a((I13
g1
tp32
g9
tp33
a((I14
g1
tp34
S'P'
p35
tp36
a((I15
g1
tp37
g22
tp38
a((I16
g1
tp39
g22
tp40
a((I17
g1
tp41
g19
tp42
a((I18
g1
tp43
g12
tp44
a((I19
g1
tp45
S'R'
p46
tp47
a((I20
g1
tp48
g12
tp49
a((I21
g1
tp50
g19
tp51
a((I22
g1
tp52
S'C'
p53
tp54
a((I23
g1
tp55
S'A'
p56
tp57
a((I24
g1
tp58
g56
tp59
a((I25
g1
tp60
g19
tp61
a((I26
g1
tp62
g22
tp63
a((I27
g1
tp64
S'F'
p65
tp66
a((I28
g1
tp67
S'T'
p68
tp69
a((I29
g1
tp70
g65
tp71
a((I30
g1
tp72
g19
tp73
a((I31
g1
tp74
g19
tp75
a((I32
g1
tp76
S'Y'
p77
tp78
a((I33
g1
tp79
g56
tp80
a((I34
g1
tp81
S'M'
p82
tp83
a((I35
g1
tp84
g19
tp85
a((I36
g1
tp86
S'W'
p87
tp88
a((I37
g1
tp89
g6
tp90
a((I38
g1
tp91
g46
tp92
a((I39
g1
tp93
g9
tp94
a((I40
g1
tp95
g56
tp96
a((I41
g1
tp97
g35
tp98
a((I42
g1
tp99
g22
tp100
a((I43
g1
tp101
S'K'
p102
tp103
a((I44
g1
tp104
g22
tp105
a((I45
g1
tp106
g12
tp107
a((I46
g1
tp108
g3
tp109
a((I47
g1
tp110
g87
tp111
a((I48
g1
tp112
g6
tp113
a((I49
g1
tp114
g19
tp115
a((I50
g1
tp116
g56
tp117
a((I51
g1
tp118
S'I'
p119
tp120
a((I52
g1
tp121
g19
tp122
a((I52
g56
tp123
g22
tp124
a((I53
g1
tp125
g19
tp126
a((I54
g1
tp127
g22
tp128
a((I55
g1
tp129
g22
tp130
a((I56
g1
tp131
g19
tp132
a((I57
g1
tp133
g68
tp134
a((I58
g1
tp135
g77
tp136
a((I59
g1
tp137
g77
tp138
a((I60
g1
tp139
g56
tp140
a((I61
g1
tp141
S'D'
p142
tp143
a((I62
g1
tp144
g19
tp145
a((I63
g1
tp146
g6
tp147
a((I64
g1
tp148
g102
tp149
a((I65
g1
tp150
g22
tp151
a((I66
g1
tp152
g46
tp153
a((I67
g1
tp154
g65
tp155
a((I68
g1
tp156
g68
tp157
a((I69
g1
tp158
g119
tp159
a((I70
g1
tp160
g19
tp161
a((I71
g1
tp162
g46
tp163
a((I72
g1
tp164
g142
tp165
a((I73
g1
tp166
S'N'
p167
tp168
a((I74
g1
tp169
g19
tp170
a((I75
g1
tp171
g102
tp172
a((I76
g1
tp173
g167
tp174
a((I77
g1
tp175
g68
tp176
a((I78
g1
tp177
g12
tp178
a((I79
g1
tp179
g77
tp180
a((I80
g1
tp181
g12
tp182
a((I81
g1
tp183
g9
tp184
a((I82
g1
tp185
g82
tp186
a((I82
g56
tp187
g167
tp188
a((I82
S'B'
p189
tp190
g19
tp191
a((I82
g53
tp192
g12
tp193
a((I83
g1
tp194
g46
tp195
a((I84
g1
tp196
g56
tp197
a((I85
g1
tp198
g3
tp199
a((I86
g1
tp200
g142
tp201
a((I87
g1
tp202
g68
tp203
a((I88
g1
tp204
g56
tp205
a((I89
g1
tp206
g6
tp207
a((I90
g1
tp208
g77
tp209
a((I91
g1
tp210
g77
tp211
a((I92
g1
tp212
g53
tp213
a((I93
g1
tp214
g56
tp215
a((I94
g1
tp216
g102
tp217
a((I95
g1
tp218
g77
tp219
a((I96
g1
tp220
g87
tp221
a((I97
g1
tp222
g77
tp223
a((I98
g1
tp224
g65
tp225
a((I101
g1
tp226
g142
tp227
a((I102
g1
tp228
g12
tp229
a((I103
g1
tp230
g87
tp231
a((I104
g1
tp232
g22
tp233
a((I105
g1
tp234
g46
tp235
a((I106
g1
tp236
g22
tp237
a((I107
g1
tp238
g68
tp239
a((I108
g1
tp240
g12
tp241
a((I109
g1
tp242
g6
tp243
a((I110
g1
tp244
g68
tp245
a((I111
g1
tp246
g6
tp247
a((I112
g1
tp248
g19
tp249
a((I113
g1
tp250
g19
tp251
a.