(lp0
((I1
S' '
p1
tp2
S'E'
p3
tp4
a((I2
g1
tp5
S'D'
p6
tp7
a((I3
g1
tp8
S'Q'
p9
tp10
a((I4
g1
tp11
S'L'
p12
tp13
a((I5
g1
tp14
S'V'
p15
tp16
a((I6
g1
tp17
g3
tp18
a((I7
g1
tp19
S'S'
p20
tp21
a((I8
g1
tp22
S'G'
p23
tp24
a((I9
g1
tp25
g23
tp26
a((I10
g1
tp27
g23
tp28
a((I11
g1
tp29
g12
tp30
a((I12
g1
tp31
g15
tp32
a((I13
g1
tp33
g9
tp34
a((I14
g1
tp35
S'P'
p36
tp37
a((I15
g1
tp38
g23
tp39
a((I16
g1
tp40
g23
tp41
a((I17
g1
tp42
g20
tp43
a((I18
g1
tp44
g12
tp45
a((I19
g1
tp46
S'R'
p47
tp48
a((I20
g1
tp49
g36
tp50
a((I21
g1
tp51
g20
tp52
a((I22
g1
tp53
S'C'
p54
tp55
a((I23
g1
tp56
S'A'
p57
tp58
a((I24
g1
tp59
g57
tp60
a((I25
g1
tp61
g20
tp62
a((I26
g1
tp63
g23
tp64
a((I27
g1
tp65
S'F'
p66
tp67
a((I28
g1
tp68
g57
tp69
a((I29
g1
tp70
g66
tp71
a((I30
g1
tp72
g20
tp73
a((I31
g1
tp74
g20
tp75
a((I32
g1
tp76
S'Y'
p77
tp78
a((I33
g1
tp79
g57
tp80
a((I34
g1
tp81
g12
tp82
a((I35
g1
tp83
S'H'
p84
tp85
a((I36
g1
tp86
S'W'
p87
tp88
a((I37
g1
tp89
g15
tp90
a((I38
g1
tp91
g47
tp92
a((I39
g1
tp93
g47
tp94
a((I40
g1
tp95
g57
tp96
a((I41
g1
tp97
g36
tp98
a((I42
g1
tp99
g23
tp100
a((I43
g1
tp101
S'K'
p102
tp103
a((I44
g1
tp104
g23
tp105
a((I45
g1
tp106
g12
tp107
a((I46
g1
tp108
g3
tp109
a((I47
g1
tp110
g87
tp111
a((I48
g1
tp112
g15
tp113
a((I49
g1
tp114
g20
tp115
a((I50
g1
tp116
g57
tp117
a((I51
g1
tp118
S'I'
p119
tp120
a((I52
g1
tp121
g23
tp122
a((I53
g1
tp123
S'T'
p124
tp125
a((I54
g1
tp126
g23
tp127
a((I55
g1
tp128
g23
tp129
a((I56
g1
tp130
g6
tp131
a((I57
g1
tp132
g124
tp133
a((I58
g1
tp134
g77
tp135
a((I59
g1
tp136
g77
tp137
a((I60
g1
tp138
g57
tp139
a((I61
g1
tp140
g6
tp141
a((I62
g1
tp142
g20
tp143
a((I63
g1
tp144
g15
tp145
a((I64
g1
tp146
S'M'
p147
tp148
a((I65
g1
tp149
g23
tp150
a((I66
g1
tp151
g47
tp152
a((I67
g1
tp153
g66
tp154
a((I68
g1
tp155
g124
tp156
a((I69
g1
tp157
g119
tp158
a((I70
g1
tp159
g20
tp160
a((I71
g1
tp161
g47
tp162
a((I72
g1
tp163
g6
tp164
a((I73
g1
tp165
S'N'
p166
tp167
a((I74
g1
tp168
g57
tp169
a((I75
g1
tp170
g102
tp171
a((I76
g1
tp172
g102
tp173
a((I77
g1
tp174
g20
tp175
a((I78
g1
tp176
g12
tp177
a((I79
g1
tp178
g77
tp179
a((I80
g1
tp180
g12
tp181
a((I81
g1
tp182
g84
tp183
a((I82
g1
tp184
g147
tp185
a((I82
g57
tp186
g166
tp187
a((I82
S'B'
p188
tp189
g20
tp190
a((I82
g54
tp191
g12
tp192
a((I83
g1
tp193
g119
tp194
a((I84
g1
tp195
g57
tp196
a((I85
g1
tp197
g3
tp198
a((I86
g1
tp199
g6
tp200
a((I87
g1
tp201
g147
tp202
a((I88
g1
tp203
g57
tp204
a((I89
g1
tp205
g15
tp206
a((I90
g1
tp207
g77
tp208
a((I91
g1
tp209
g77
tp210
a((I92
g1
tp211
g54
tp212
a((I93
g1
tp213
g57
tp214
a((I94
g1
tp215
g47
tp216
a((I95
g1
tp217
g6
tp218
a((I96
g1
tp219
g57
tp220
a((I97
g1
tp221
g66
tp222
a((I101
g1
tp223
g6
tp224
a((I102
g1
tp225
g15
tp226
a((I103
g1
tp227
g87
tp228
a((I104
g1
tp229
g23
tp230
a((I105
g1
tp231
g9
tp232
a((I106
g1
tp233
g23
tp234
a((I107
g1
tp235
g124
tp236
a((I108
g1
tp237
g147
tp238
a((I109
g1
tp239
g15
tp240
a((I110
g1
tp241
g124
tp242
a((I111
g1
tp243
g15
tp244
a((I112
g1
tp245
g20
tp246
a((I113
g1
tp247
g20
tp248
a.