(lp0
((I1
S' '
p1
tp2
S'E'
p3
tp4
a((I2
g1
tp5
S'V'
p6
tp7
a((I3
g1
tp8
S'Q'
p9
tp10
a((I4
g1
tp11
S'L'
p12
tp13
a((I5
g1
tp14
g6
tp15
a((I6
g1
tp16
g3
tp17
a((I7
g1
tp18
S'S'
p19
tp20
a((I8
g1
tp21
S'R'
p22
tp23
a((I9
g1
tp24
S'G'
p25
tp26
a((I10
g1
tp27
g6
tp28
a((I11
g1
tp29
g12
tp30
a((I12
g1
tp31
g6
tp32
a((I13
g1
tp33
g9
tp34
a((I14
g1
tp35
S'P'
p36
tp37
a((I15
g1
tp38
g25
tp39
a((I16
g1
tp40
g25
tp41
a((I17
g1
tp42
g19
tp43
a((I18
g1
tp44
g12
tp45
a((I19
g1
tp46
g22
tp47
a((I20
g1
tp48
g12
tp49
a((I21
g1
tp50
g19
tp51
a((I22
g1
tp52
S'C'
p53
tp54
a((I23
g1
tp55
S'A'
p56
tp57
a((I24
g1
tp58
g56
tp59
a((I25
g1
tp60
g19
tp61
a((I26
g1
tp62
g25
tp63
a((I27
g1
tp64
S'F'
p65
tp66
a((I28
g1
tp67
S'T'
p68
tp69
a((I29
g1
tp70
g6
tp71
a((I30
g1
tp72
g19
tp73
a((I31
g1
tp74
g19
tp75
a((I32
g1
tp76
S'N'
p77
tp78
a((I33
g1
tp79
g3
tp80
a((I34
g1
tp81
S'M'
p82
tp83
a((I35
g1
tp84
g19
tp85
a((I36
g1
tp86
S'W'
p87
tp88
a((I37
g1
tp89
g6
tp90
a((I38
g1
tp91
g22
tp92
a((I39
g1
tp93
g9
tp94
a((I40
g1
tp95
g56
tp96
a((I41
g1
tp97
g36
tp98
a((I42
g1
tp99
g25
tp100
a((I43
g1
tp101
S'K'
p102
tp103
a((I44
g1
tp104
g25
tp105
a((I45
g1
tp106
g12
tp107
a((I46
g1
tp108
g3
tp109
a((I47
g1
tp110
g87
tp111
a((I48
g1
tp112
g6
tp113
a((I49
g1
tp114
g19
tp115
a((I50
g1
tp116
g19
tp117
a((I51
g1
tp118
S'I'
p119
tp120
a((I53
g1
tp121
g19
tp122
a((I54
g1
tp123
g25
tp124
a((I55
g1
tp125
g25
tp126
a((I56
g1
tp127
g19
tp128
a((I57
g1
tp129
g68
tp130
a((I58
g1
tp131
S'Y'
p132
tp133
a((I59
g1
tp134
g132
tp135
a((I60
g1
tp136
g56
tp137
a((I61
g1
tp138
S'D'
p139
tp140
a((I62
g1
tp141
g19
tp142
a((I63
g1
tp143
g22
tp144
a((I64
g1
tp145
g102
tp146
a((I65
g1
tp147
g25
tp148
a((I66
g1
tp149
g22
tp150
a((I67
g1
tp151
g65
tp152
a((I68
g1
tp153
g68
tp154
a((I69
g1
tp155
g119
tp156
a((I70
g1
tp157
g19
tp158
a((I71
g1
tp159
g22
tp160
a((I72
g1
tp161
g139
tp162
a((I73
g1
tp163
g77
tp164
a((I74
g1
tp165
g19
tp166
a((I75
g1
tp167
g102
tp168
a((I76
g1
tp169
g77
tp170
a((I77
g1
tp171
g68
tp172
a((I78
g1
tp173
g12
tp174
a((I79
g1
tp175
S'H'
p176
tp177
a((I80
g1
tp178
g12
tp179
a((I81
g1
tp180
g9
tp181
a((I82
g1
tp182
g82
tp183
a((I82
g56
tp184
g77
tp185
a((I82
S'B'
p186
tp187
g19
tp188
a((I82
g53
tp189
g12
tp190
a((I83
g1
tp191
g22
tp192
a((I84
g1
tp193
g56
tp194
a((I85
g1
tp195
g3
tp196
a((I86
g1
tp197
g139
tp198
a((I87
g1
tp199
g68
tp200
a((I88
g1
tp201
g56
tp202
a((I89
g1
tp203
g6
tp204
a((I90
g1
tp205
g132
tp206
a((I91
g1
tp207
g132
tp208
a((I92
g1
tp209
g53
tp210
a((I93
g1
tp211
g102
tp212
a((I94
g1
tp213
g102
tp214
a((I95
g1
tp215
g132
tp216
a((I96
g1
tp217
g132
tp218
a((I97
g1
tp219
g132
tp220
a((I98
g1
tp221
g132
tp222
a((I99
g1
tp223
g132
tp224
a((I100
g1
tp225
g25
tp226
a((I100
g56
tp227
g82
tp228
a((I101
g1
tp229
g139
tp230
a((I102
g1
tp231
g6
tp232
a((I103
g1
tp233
g87
tp234
a((I104
g1
tp235
g25
tp236
a((I105
g1
tp237
g9
tp238
a((I106
g1
tp239
g25
tp240
a((I107
g1
tp241
g68
tp242
a((I108
g1
tp243
g68
tp244
a((I109
g1
tp245
g6
tp246
a((I110
g1
tp247
g68
tp248
a((I111
g1
tp249
g6
tp250
a((I112
g1
tp251
g19
tp252
a((I113
g1
tp253
g19
tp254
a.