(lp0
((I1
S' '
p1
tp2
S'Q'
p3
tp4
a((I2
g1
tp5
S'V'
p6
tp7
a((I3
g1
tp8
S'T'
p9
tp10
a((I4
g1
tp11
S'L'
p12
tp13
a((I5
g1
tp14
S'K'
p15
tp16
a((I6
g1
tp17
S'E'
p18
tp19
a((I7
g1
tp20
S'S'
p21
tp22
a((I8
g1
tp23
S'G'
p24
tp25
a((I9
g1
tp26
S'P'
p27
tp28
a((I10
g1
tp29
S'A'
p30
tp31
a((I11
g1
tp32
g12
tp33
a((I12
g1
tp34
g6
tp35
a((I13
g1
tp36
g15
tp37
a((I14
g1
tp38
g27
tp39
a((I15
g1
tp40
g9
tp41
a((I16
g1
tp42
g3
tp43
a((I17
g1
tp44
g9
tp45
a((I18
g1
tp46
g12
tp47
a((I19
g1
tp48
S'M'
p49
tp50
a((I20
g1
tp51
g12
tp52
a((I21
g1
tp53
g9
tp54
a((I22
g1
tp55
S'C'
p56
tp57
a((I23
g1
tp58
g9
tp59
a((I24
g1
tp60
S'F'
p61
tp62
a((I25
g1
tp63
g21
tp64
a((I26
g1
tp65
g24
tp66
a((I27
g1
tp67
g61
tp68
a((I28
g1
tp69
g21
tp70
a((I29
g1
tp71
g12
tp72
a((I30
g1
tp73
g21
tp74
a((I31
g1
tp75
g9
tp76
a((I31
g30
tp77
g21
tp78
a((I32
g1
tp79
g24
tp80
a((I33
g1
tp81
g49
tp82
a((I34
g1
tp83
g24
tp84
a((I35
g1
tp85
g6
tp86
a((I36
g1
tp87
g24
tp88
a((I37
g1
tp89
S'I'
p90
tp91
a((I38
g1
tp92
g56
tp93
a((I39
g1
tp94
g3
tp95
a((I40
g1
tp96
g27
tp97
a((I41
g1
tp98
g21
tp99
a((I42
g1
tp100
g30
tp101
a((I43
g1
tp102
g15
tp103
a((I44
g1
tp104
g30
tp105
a((I45
g1
tp106
g12
tp107
a((I46
g1
tp108
g18
tp109
a((I47
g1
tp110
S'W'
p111
tp112
a((I48
g1
tp113
g12
tp114
a((I49
g1
tp115
g30
tp116
a((I50
g1
tp117
S'H'
p118
tp119
a((I51
g1
tp120
g90
tp121
a((I53
g1
tp122
S'Y'
p123
tp124
a((I54
g1
tp125
S'N'
p126
tp127
a((I55
g1
tp128
S'D'
p129
tp130
a((I56
g1
tp131
g126
tp132
a((I57
g1
tp133
g15
tp134
a((I58
g1
tp135
g123
tp136
a((I59
g1
tp137
g123
tp138
a((I60
g1
tp139
g21
tp140
a((I61
g1
tp141
g27
tp142
a((I62
g1
tp143
g21
tp144
a((I63
g1
tp145
g12
tp146
a((I64
g1
tp147
g15
tp148
a((I65
g1
tp149
g21
tp150
a((I66
g1
tp151
S'R'
p152
tp153
a((I67
g1
tp154
g12
tp155
a((I68
g1
tp156
g90
tp157
a((I69
g1
tp158
g90
tp159
a((I70
g1
tp160
g21
tp161
a((I71
g1
tp162
g15
tp163
a((I72
g1
tp164
g129
tp165
a((I73
g1
tp166
g9
tp167
a((I74
g1
tp168
g21
tp169
a((I75
g1
tp170
g15
tp171
a((I76
g1
tp172
g126
tp173
a((I77
g1
tp174
g18
tp175
a((I78
g1
tp176
g6
tp177
a((I79
g1
tp178
g6
tp179
a((I80
g1
tp180
g12
tp181
a((I81
g1
tp182
g9
tp183
a((I82
g1
tp184
g6
tp185
a((I82
g30
tp186
g90
tp187
a((I82
S'B'
p188
tp189
g126
tp190
a((I82
g56
tp191
g49
tp192
a((I83
g1
tp193
g129
tp194
a((I84
g1
tp195
g90
tp196
a((I85
g1
tp197
g6
tp198
a((I86
g1
tp199
g129
tp200
a((I87
g1
tp201
g9
tp202
a((I88
g1
tp203
g30
tp204
a((I89
g1
tp205
g9
tp206
a((I90
g1
tp207
g118
tp208
a((I91
g1
tp209
g123
tp210
a((I92
g1
tp211
g56
tp212
a((I93
g1
tp213
g30
tp214
a((I94
g1
tp215
g152
tp216
a((I95
g1
tp217
g152
tp218
a((I96
g1
tp219
g126
tp220
a((I97
g1
tp221
g111
tp222
a((I98
g1
tp223
g61
tp224
a((I101
g1
tp225
g129
tp226
a((I102
g1
tp227
g21
tp228
a((I103
g1
tp229
g111
tp230
a((I104
g1
tp231
g24
tp232
a((I105
g1
tp233
g3
tp234
a((I106
g1
tp235
g24
tp236
a((I107
g1
tp237
g9
tp238
a((I108
g1
tp239
g12
tp240
a((I109
g1
tp241
g6
tp242
a((I110
g1
tp243
g9
tp244
a((I111
g1
tp245
g6
tp246
a((I112
g1
tp247
g21
tp248
a((I113
g1
tp249
g21
tp250
a.