(lp0
((I1
S' '
p1
tp2
S'Q'
p3
tp4
a((I2
g1
tp5
S'V'
p6
tp7
a((I3
g1
tp8
S'T'
p9
tp10
a((I4
g1
tp11
S'L'
p12
tp13
a((I5
g1
tp14
S'R'
p15
tp16
a((I6
g1
tp17
S'E'
p18
tp19
a((I7
g1
tp20
S'S'
p21
tp22
a((I8
g1
tp23
S'G'
p24
tp25
a((I9
g1
tp26
S'P'
p27
tp28
a((I10
g1
tp29
S'A'
p30
tp31
a((I11
g1
tp32
g12
tp33
a((I12
g1
tp34
g6
tp35
a((I13
g1
tp36
S'K'
p37
tp38
a((I14
g1
tp39
g27
tp40
a((I15
g1
tp41
g9
tp42
a((I16
g1
tp43
g3
tp44
a((I17
g1
tp45
g9
tp46
a((I18
g1
tp47
g12
tp48
a((I19
g1
tp49
g9
tp50
a((I20
g1
tp51
g12
tp52
a((I21
g1
tp53
g9
tp54
a((I22
g1
tp55
S'C'
p56
tp57
a((I23
g1
tp58
g9
tp59
a((I24
g1
tp60
S'F'
p61
tp62
a((I25
g1
tp63
g21
tp64
a((I26
g1
tp65
g24
tp66
a((I27
g1
tp67
g61
tp68
a((I28
g1
tp69
g21
tp70
a((I29
g1
tp71
g12
tp72
a((I30
g1
tp73
g21
tp74
a((I31
g1
tp75
g9
tp76
a((I31
g30
tp77
g21
tp78
a((I31
S'B'
p79
tp80
g24
tp81
a((I32
g1
tp82
S'M'
p83
tp84
a((I33
g1
tp85
g56
tp86
a((I34
g1
tp87
g6
tp88
a((I35
g1
tp89
g21
tp90
a((I36
g1
tp91
S'W'
p92
tp93
a((I37
g1
tp94
S'I'
p95
tp96
a((I38
g1
tp97
g15
tp98
a((I39
g1
tp99
g3
tp100
a((I40
g1
tp101
g27
tp102
a((I41
g1
tp103
g27
tp104
a((I42
g1
tp105
g24
tp106
a((I43
g1
tp107
g37
tp108
a((I44
g1
tp109
g30
tp110
a((I45
g1
tp111
g12
tp112
a((I46
g1
tp113
g18
tp114
a((I47
g1
tp115
g92
tp116
a((I48
g1
tp117
g12
tp118
a((I49
g1
tp119
g30
tp120
a((I50
g1
tp121
g12
tp122
a((I51
g1
tp123
g95
tp124
a((I52
g1
tp125
S'D'
p126
tp127
a((I53
g1
tp128
g92
tp129
a((I54
g1
tp130
g126
tp131
a((I55
g1
tp132
g126
tp133
a((I56
g1
tp134
g126
tp135
a((I57
g1
tp136
g37
tp137
a((I58
g1
tp138
S'Y'
p139
tp140
a((I59
g1
tp141
g139
tp142
a((I60
g1
tp143
g21
tp144
a((I61
g1
tp145
g9
tp146
a((I62
g1
tp147
g21
tp148
a((I63
g1
tp149
g12
tp150
a((I64
g1
tp151
g37
tp152
a((I65
g1
tp153
g9
tp154
a((I66
g1
tp155
g15
tp156
a((I67
g1
tp157
g12
tp158
a((I68
g1
tp159
g9
tp160
a((I69
g1
tp161
g95
tp162
a((I70
g1
tp163
g21
tp164
a((I71
g1
tp165
g37
tp166
a((I72
g1
tp167
g126
tp168
a((I73
g1
tp169
g9
tp170
a((I74
g1
tp171
g21
tp172
a((I75
g1
tp173
g37
tp174
a((I76
g1
tp175
S'N'
p176
tp177
a((I77
g1
tp178
g3
tp179
a((I78
g1
tp180
g6
tp181
a((I79
g1
tp182
g6
tp183
a((I80
g1
tp184
g12
tp185
a((I81
g1
tp186
g9
tp187
a((I82
g1
tp188
g83
tp189
a((I82
g30
tp190
g9
tp191
a((I82
g79
tp192
g176
tp193
a((I82
g56
tp194
g83
tp195
a((I83
g1
tp196
g126
tp197
a((I84
g1
tp198
g27
tp199
a((I85
g1
tp200
g6
tp201
a((I86
g1
tp202
g126
tp203
a((I87
g1
tp204
g9
tp205
a((I88
g1
tp206
g30
tp207
a((I89
g1
tp208
g9
tp209
a((I90
g1
tp210
g139
tp211
a((I91
g1
tp212
g139
tp213
a((I92
g1
tp214
g56
tp215
a((I93
g1
tp216
g30
tp217
a((I94
g1
tp218
g15
tp219
a((I95
g1
tp220
g95
tp221
a((I96
g1
tp222
g139
tp223
a((I97
g1
tp224
g92
tp225
a((I98
g1
tp226
g139
tp227
a((I99
g1
tp228
g61
tp229
a((I101
g1
tp230
g126
tp231
a((I102
g1
tp232
g12
tp233
a((I103
g1
tp234
g92
tp235
a((I104
g1
tp236
g24
tp237
a((I105
g1
tp238
g15
tp239
a((I106
g1
tp240
g24
tp241
a((I107
g1
tp242
g9
tp243
a((I108
g1
tp244
g12
tp245
a((I109
g1
tp246
g6
tp247
a((I110
g1
tp248
g9
tp249
a((I111
g1
tp250
g6
tp251
a((I112
g1
tp252
g21
tp253
a((I113
g1
tp254
g21
tp255
a.