(lp0
((I1
S' '
p1
tp2
S'E'
p3
tp4
a((I2
g1
tp5
S'V'
p6
tp7
a((I3
g1
tp8
S'Q'
p9
tp10
a((I4
g1
tp11
S'L'
p12
tp13
a((I5
g1
tp14
g6
tp15
a((I6
g1
tp16
g3
tp17
a((I7
g1
tp18
S'S'
p19
tp20
a((I8
g1
tp21
S'G'
p22
tp23
a((I9
g1
tp24
g3
tp25
a((I10
g1
tp26
g22
tp27
a((I11
g1
tp28
g12
tp29
a((I12
g1
tp30
g6
tp31
a((I13
g1
tp32
g9
tp33
a((I14
g1
tp34
S'P'
p35
tp36
a((I15
g1
tp37
g22
tp38
a((I16
g1
tp39
g22
tp40
a((I17
g1
tp41
g19
tp42
a((I18
g1
tp43
g12
tp44
a((I19
g1
tp45
S'R'
p46
tp47
a((I20
g1
tp48
g12
tp49
a((I21
g1
tp50
g19
tp51
a((I22
g1
tp52
S'C'
p53
tp54
a((I23
g1
tp55
S'A'
p56
tp57
a((I24
g1
tp58
g56
tp59
a((I25
g1
tp60
g19
tp61
a((I26
g1
tp62
g22
tp63
a((I27
g1
tp64
S'F'
p65
tp66
a((I28
g1
tp67
S'T'
p68
tp69
a((I29
g1
tp70
g65
tp71
a((I30
g1
tp72
g19
tp73
a((I31
g1
tp74
g19
tp75
a((I32
g1
tp76
g19
tp77
a((I33
g1
tp78
g56
tp79
a((I34
g1
tp80
S'M'
p81
tp82
a((I35
g1
tp83
S'H'
p84
tp85
a((I36
g1
tp86
S'W'
p87
tp88
a((I37
g1
tp89
g6
tp90
a((I38
g1
tp91
g46
tp92
a((I39
g1
tp93
g9
tp94
a((I40
g1
tp95
g56
tp96
a((I41
g1
tp97
g35
tp98
a((I42
g1
tp99
g46
tp100
a((I43
g1
tp101
S'K'
p102
tp103
a((I44
g1
tp104
g22
tp105
a((I45
g1
tp106
g12
tp107
a((I46
g1
tp108
S'-'
p109
tp110
a((I47
g1
tp111
g87
tp112
a((I48
g1
tp113
g6
tp114
a((I49
g1
tp115
g19
tp116
a((I50
g1
tp117
g6
tp118
a((I51
g1
tp119
S'I'
p120
tp121
a((I52
g1
tp122
g19
tp123
a((I52
g56
tp124
g68
tp125
a((I53
g1
tp126
g19
tp127
a((I54
g1
tp128
g22
tp129
a((I55
g1
tp130
S'D'
p131
tp132
a((I56
g1
tp133
g68
tp134
a((I57
g1
tp135
g6
tp136
a((I58
g1
tp137
g12
tp138
a((I59
g1
tp139
S'Y'
p140
tp141
a((I60
g1
tp142
g68
tp143
a((I61
g1
tp144
g131
tp145
a((I62
g1
tp146
g19
tp147
a((I63
g1
tp148
g6
tp149
a((I64
g1
tp150
g102
tp151
a((I65
g1
tp152
g22
tp153
a((I66
g1
tp154
g46
tp155
a((I67
g1
tp156
g65
tp157
a((I68
g1
tp158
g68
tp159
a((I69
g1
tp160
g120
tp161
a((I70
g1
tp162
g19
tp163
a((I71
g1
tp164
g46
tp165
a((I72
g1
tp166
g131
tp167
a((I73
g1
tp168
S'N'
p169
tp170
a((I74
g1
tp171
g56
tp172
a((I75
g1
tp173
g9
tp174
a((I76
g1
tp175
g169
tp176
a((I77
g1
tp177
g19
tp178
a((I78
g1
tp179
g12
tp180
a((I79
g1
tp181
g19
tp182
a((I80
g1
tp183
g12
tp184
a((I81
g1
tp185
g9
tp186
a((I82
g1
tp187
g81
tp188
a((I82
g56
tp189
g169
tp190
a((I82
S'B'
p191
tp192
g19
tp193
a((I82
g53
tp194
g12
tp195
a((I83
g1
tp196
g46
tp197
a((I84
g1
tp198
g56
tp199
a((I85
g1
tp200
g3
tp201
a((I86
g1
tp202
g22
tp203
a((I87
g1
tp204
g68
tp205
a((I88
g1
tp206
g6
tp207
a((I89
g1
tp208
g6
tp209
a((I90
g1
tp210
g140
tp211
a((I91
g1
tp212
g140
tp213
a((I92
g1
tp214
g53
tp215
a((I93
g1
tp216
g6
tp217
a((I94
g1
tp218
g102
tp219
a((I95
g1
tp220
g140
tp221
a((I96
g1
tp222
g87
tp223
a((I97
g1
tp224
g140
tp225
a((I98
g1
tp226
g65
tp227
a((I101
g1
tp228
g131
tp229
a((I102
g1
tp230
g12
tp231
a((I103
g1
tp232
g87
tp233
a((I104
g1
tp234
g22
tp235
a((I105
g1
tp236
g46
tp237
a((I106
g1
tp238
g22
tp239
a((I107
g1
tp240
g68
tp241
a((I108
g1
tp242
g12
tp243
a((I109
g1
tp244
g6
tp245
a((I110
g1
tp246
g68
tp247
a((I111
g1
tp248
g6
tp249
a((I112
g1
tp250
g19
tp251
a((I113
g1
tp252
g19
tp253
a.