(lp0
((I1
S' '
p1
tp2
S'E'
p3
tp4
a((I2
g1
tp5
S'V'
p6
tp7
a((I3
g1
tp8
S'Q'
p9
tp10
a((I4
g1
tp11
S'L'
p12
tp13
a((I5
g1
tp14
g6
tp15
a((I6
g1
tp16
g3
tp17
a((I7
g1
tp18
S'S'
p19
tp20
a((I8
g1
tp21
S'G'
p22
tp23
a((I9
g1
tp24
g22
tp25
a((I10
g1
tp26
g22
tp27
a((I11
g1
tp28
g12
tp29
a((I12
g1
tp30
g6
tp31
a((I13
g1
tp32
g9
tp33
a((I14
g1
tp34
S'P'
p35
tp36
a((I15
g1
tp37
S'R'
p38
tp39
a((I16
g1
tp40
g22
tp41
a((I17
g1
tp42
g19
tp43
a((I18
g1
tp44
g12
tp45
a((I19
g1
tp46
g38
tp47
a((I20
g1
tp48
g12
tp49
a((I21
g1
tp50
g19
tp51
a((I22
g1
tp52
S'C'
p53
tp54
a((I23
g1
tp55
S'A'
p56
tp57
a((I24
g1
tp58
g56
tp59
a((I25
g1
tp60
g19
tp61
a((I26
g1
tp62
g22
tp63
a((I27
g1
tp64
S'F'
p65
tp66
a((I28
g1
tp67
S'T'
p68
tp69
a((I29
g1
tp70
g6
tp71
a((I30
g1
tp72
g19
tp73
a((I31
g1
tp74
g19
tp75
a((I32
g1
tp76
S'N'
p77
tp78
a((I33
g1
tp79
g3
tp80
a((I34
g1
tp81
S'M'
p82
tp83
a((I35
g1
tp84
g19
tp85
a((I36
g1
tp86
S'W'
p87
tp88
a((I37
g1
tp89
S'I'
p90
tp91
a((I38
g1
tp92
g38
tp93
a((I39
g1
tp94
g9
tp95
a((I40
g1
tp96
g56
tp97
a((I41
g1
tp98
g35
tp99
a((I42
g1
tp100
g22
tp101
a((I43
g1
tp102
S'K'
p103
tp104
a((I44
g1
tp105
g22
tp106
a((I45
g1
tp107
g12
tp108
a((I46
g1
tp109
g3
tp110
a((I47
g1
tp111
g87
tp112
a((I48
g1
tp113
g6
tp114
a((I49
g1
tp115
g19
tp116
a((I50
g1
tp117
g19
tp118
a((I51
g1
tp119
g90
tp120
a((I53
g1
tp121
g19
tp122
a((I54
g1
tp123
g22
tp124
a((I55
g1
tp125
g22
tp126
a((I56
g1
tp127
g19
tp128
a((I57
g1
tp129
g68
tp130
a((I58
g1
tp131
S'Y'
p132
tp133
a((I59
g1
tp134
g132
tp135
a((I60
g1
tp136
g56
tp137
a((I61
g1
tp138
S'D'
p139
tp140
a((I62
g1
tp141
g19
tp142
a((I63
g1
tp143
g38
tp144
a((I64
g1
tp145
g103
tp146
a((I65
g1
tp147
g22
tp148
a((I66
g1
tp149
g38
tp150
a((I67
g1
tp151
g65
tp152
a((I68
g1
tp153
g68
tp154
a((I69
g1
tp155
g90
tp156
a((I70
g1
tp157
g19
tp158
a((I71
g1
tp159
g38
tp160
a((I72
g1
tp161
g139
tp162
a((I73
g1
tp163
g77
tp164
a((I74
g1
tp165
g19
tp166
a((I75
g1
tp167
g103
tp168
a((I76
g1
tp169
g77
tp170
a((I77
g1
tp171
g68
tp172
a((I78
g1
tp173
g12
tp174
a((I79
g1
tp175
g132
tp176
a((I80
g1
tp177
g12
tp178
a((I81
g1
tp179
g9
tp180
a((I82
g1
tp181
g82
tp182
a((I82
g56
tp183
g77
tp184
a((I82
S'B'
p185
tp186
g77
tp187
a((I82
g53
tp188
g12
tp189
a((I83
g1
tp190
g38
tp191
a((I84
g1
tp192
g56
tp193
a((I85
g1
tp194
g3
tp195
a((I86
g1
tp196
g22
tp197
a((I87
g1
tp198
g68
tp199
a((I88
g1
tp200
g56
tp201
a((I89
g1
tp202
g56
tp203
a((I90
g1
tp204
g132
tp205
a((I91
g1
tp206
g132
tp207
a((I92
g1
tp208
g53
tp209
a((I93
g1
tp210
g56
tp211
a((I94
g1
tp212
g38
tp213
a((I95
g1
tp214
g132
tp215
a((I96
g1
tp216
g132
tp217
a((I97
g1
tp218
g132
tp219
a((I98
g1
tp220
g132
tp221
a((I99
g1
tp222
g132
tp223
a((I100
g1
tp224
g132
tp225
a((I100
g56
tp226
g22
tp227
a((I100
g185
tp228
g82
tp229
a((I101
g1
tp230
g139
tp231
a((I102
g1
tp232
g6
tp233
a((I103
g1
tp234
g87
tp235
a((I104
g1
tp236
g22
tp237
a((I105
g1
tp238
g9
tp239
a((I106
g1
tp240
g22
tp241
a((I107
g1
tp242
g68
tp243
a((I108
g1
tp244
g68
tp245
a((I109
g1
tp246
g6
tp247
a((I110
g1
tp248
g68
tp249
a((I111
g1
tp250
g6
tp251
a((I112
g1
tp252
g19
tp253
a((I113
g1
tp254
g19
tp255
a.