(lp0
((I1
S' '
p1
tp2
S'Q'
p3
tp4
a((I2
g1
tp5
S'V'
p6
tp7
a((I3
g1
tp8
g3
tp9
a((I4
g1
tp10
S'L'
p11
tp12
a((I5
g1
tp13
g6
tp14
a((I6
g1
tp15
g3
tp16
a((I7
g1
tp17
S'S'
p18
tp19
a((I8
g1
tp20
S'G'
p21
tp22
a((I9
g1
tp23
S'A'
p24
tp25
a((I10
g1
tp26
S'E'
p27
tp28
a((I11
g1
tp29
g6
tp30
a((I12
g1
tp31
S'K'
p32
tp33
a((I13
g1
tp34
g32
tp35
a((I14
g1
tp36
S'P'
p37
tp38
a((I15
g1
tp39
g21
tp40
a((I16
g1
tp41
g24
tp42
a((I17
g1
tp43
g18
tp44
a((I18
g1
tp45
g6
tp46
a((I19
g1
tp47
g32
tp48
a((I20
g1
tp49
g6
tp50
a((I21
g1
tp51
g18
tp52
a((I22
g1
tp53
S'C'
p54
tp55
a((I23
g1
tp56
g32
tp57
a((I24
g1
tp58
g24
tp59
a((I25
g1
tp60
g18
tp61
a((I26
g1
tp62
g21
tp63
a((I27
g1
tp64
S'Y'
p65
tp66
a((I28
g1
tp67
S'T'
p68
tp69
a((I29
g1
tp70
S'F'
p71
tp72
a((I30
g1
tp73
g68
tp74
a((I31
g1
tp75
g18
tp76
a((I32
g1
tp77
g65
tp78
a((I33
g1
tp79
g21
tp80
a((I34
g1
tp81
S'I'
p82
tp83
a((I35
g1
tp84
g18
tp85
a((I36
g1
tp86
S'W'
p87
tp88
a((I37
g1
tp89
g6
tp90
a((I38
g1
tp91
S'R'
p92
tp93
a((I39
g1
tp94
g3
tp95
a((I40
g1
tp96
g24
tp97
a((I41
g1
tp98
g37
tp99
a((I42
g1
tp100
g21
tp101
a((I43
g1
tp102
g3
tp103
a((I44
g1
tp104
g21
tp105
a((I45
g1
tp106
g11
tp107
a((I46
g1
tp108
g27
tp109
a((I47
g1
tp110
g87
tp111
a((I48
g1
tp112
S'M'
p113
tp114
a((I49
g1
tp115
g21
tp116
a((I50
g1
tp117
g87
tp118
a((I51
g1
tp119
g82
tp120
a((I52
g1
tp121
g18
tp122
a((I52
g24
tp123
g24
tp124
a((I53
g1
tp125
g65
tp126
a((I54
g1
tp127
S'N'
p128
tp129
a((I55
g1
tp130
g21
tp131
a((I56
g1
tp132
g128
tp133
a((I57
g1
tp134
g68
tp135
a((I58
g1
tp136
g128
tp137
a((I59
g1
tp138
g65
tp139
a((I60
g1
tp140
g24
tp141
a((I61
g1
tp142
g3
tp143
a((I62
g1
tp144
g32
tp145
a((I63
g1
tp146
g11
tp147
a((I64
g1
tp148
g3
tp149
a((I65
g1
tp150
g21
tp151
a((I66
g1
tp152
g92
tp153
a((I67
g1
tp154
g6
tp155
a((I68
g1
tp156
g68
tp157
a((I69
g1
tp158
g113
tp159
a((I70
g1
tp160
g68
tp161
a((I71
g1
tp162
g68
tp163
a((I72
g1
tp164
S'D'
p165
tp166
a((I73
g1
tp167
g68
tp168
a((I74
g1
tp169
g18
tp170
a((I75
g1
tp171
g68
tp172
a((I76
g1
tp173
g18
tp174
a((I77
g1
tp175
g68
tp176
a((I78
g1
tp177
g24
tp178
a((I79
g1
tp179
g65
tp180
a((I80
g1
tp181
g113
tp182
a((I81
g1
tp183
g27
tp184
a((I82
g1
tp185
g11
tp186
a((I82
g24
tp187
g92
tp188
a((I82
S'B'
p189
tp190
g18
tp191
a((I82
g54
tp192
g11
tp193
a((I83
g1
tp194
g92
tp195
a((I84
g1
tp196
g18
tp197
a((I85
g1
tp198
g165
tp199
a((I86
g1
tp200
g165
tp201
a((I87
g1
tp202
g68
tp203
a((I88
g1
tp204
g24
tp205
a((I89
g1
tp206
g6
tp207
a((I90
g1
tp208
g65
tp209
a((I91
g1
tp210
g65
tp211
a((I92
g1
tp212
g54
tp213
a((I93
g1
tp214
g24
tp215
a((I94
g1
tp216
g92
tp217
a((I95
g1
tp218
g24
tp219
a((I96
g1
tp220
g27
tp221
a((I97
g1
tp222
g65
tp223
a((I98
g1
tp224
g71
tp225
a((I101
g1
tp226
g3
tp227
a((I102
g1
tp228
S'H'
p229
tp230
a((I103
g1
tp231
g87
tp232
a((I104
g1
tp233
g21
tp234
a((I105
g1
tp235
g3
tp236
a((I106
g1
tp237
g21
tp238
a((I107
g1
tp239
g68
tp240
a((I108
g1
tp241
g11
tp242
a((I109
g1
tp243
g6
tp244
a((I110
g1
tp245
g68
tp246
a((I111
g1
tp247
g6
tp248
a((I112
g1
tp249
g18
tp250
a((I113
g1
tp251
g18
tp252
a.