(lp0
((I1
S' '
p1
tp2
S'Q'
p3
tp4
a((I2
g1
tp5
S'V'
p6
tp7
a((I3
g1
tp8
g3
tp9
a((I4
g1
tp10
S'L'
p11
tp12
a((I5
g1
tp13
g3
tp14
a((I6
g1
tp15
S'E'
p16
tp17
a((I7
g1
tp18
S'S'
p19
tp20
a((I8
g1
tp21
S'G'
p22
tp23
a((I9
g1
tp24
S'P'
p25
tp26
a((I10
g1
tp27
g22
tp28
a((I11
g1
tp29
g11
tp30
a((I12
g1
tp31
g6
tp32
a((I13
g1
tp33
S'K'
p34
tp35
a((I14
g1
tp36
g25
tp37
a((I15
g1
tp38
g19
tp39
a((I16
g1
tp40
g16
tp41
a((I17
g1
tp42
S'T'
p43
tp44
a((I18
g1
tp45
g11
tp46
a((I19
g1
tp47
g19
tp48
a((I20
g1
tp49
g11
tp50
a((I21
g1
tp51
S'I'
p52
tp53
a((I22
g1
tp54
S'C'
p55
tp56
a((I23
g1
tp57
S'A'
p58
tp59
a((I24
g1
tp60
g6
tp61
a((I25
g1
tp62
g19
tp63
a((I26
g1
tp64
g22
tp65
a((I27
g1
tp66
S'D'
p67
tp68
a((I28
g1
tp69
g19
tp70
a((I29
g1
tp71
g52
tp72
a((I30
g1
tp73
g19
tp74
a((I31
g1
tp75
g19
tp76
a((I32
g1
tp77
g22
tp78
a((I33
g1
tp79
S'N'
p80
tp81
a((I34
g1
tp82
S'W'
p83
tp84
a((I35
g1
tp85
g52
tp86
a((I36
g1
tp87
g83
tp88
a((I37
g1
tp89
g6
tp90
a((I38
g1
tp91
S'R'
p92
tp93
a((I39
g1
tp94
g3
tp95
a((I40
g1
tp96
g25
tp97
a((I41
g1
tp98
g25
tp99
a((I42
g1
tp100
g22
tp101
a((I43
g1
tp102
g34
tp103
a((I44
g1
tp104
g22
tp105
a((I45
g1
tp106
g11
tp107
a((I46
g1
tp108
g16
tp109
a((I47
g1
tp110
g83
tp111
a((I48
g1
tp112
g52
tp113
a((I49
g1
tp114
g22
tp115
a((I50
g1
tp116
g16
tp117
a((I51
g1
tp118
g52
tp119
a((I52
g1
tp120
S'H'
p121
tp122
a((I53
g1
tp123
g121
tp124
a((I54
g1
tp125
g19
tp126
a((I55
g1
tp127
g22
tp128
a((I56
g1
tp129
g19
tp130
a((I57
g1
tp131
g43
tp132
a((I58
g1
tp133
S'Y'
p134
tp135
a((I59
g1
tp136
g134
tp137
a((I60
g1
tp138
g80
tp139
a((I61
g1
tp140
g25
tp141
a((I62
g1
tp142
g19
tp143
a((I63
g1
tp144
g11
tp145
a((I64
g1
tp146
g34
tp147
a((I65
g1
tp148
g19
tp149
a((I66
g1
tp150
g92
tp151
a((I67
g1
tp152
g52
tp153
a((I68
g1
tp154
g43
tp155
a((I69
g1
tp156
S'M'
p157
tp158
a((I70
g1
tp159
g19
tp160
a((I71
g1
tp161
g6
tp162
a((I72
g1
tp163
g67
tp164
a((I73
g1
tp165
g43
tp166
a((I74
g1
tp167
g19
tp168
a((I75
g1
tp169
g34
tp170
a((I76
g1
tp171
g80
tp172
a((I77
g1
tp173
g3
tp174
a((I78
g1
tp175
S'F'
p176
tp177
a((I79
g1
tp178
g134
tp179
a((I80
g1
tp180
g11
tp181
a((I81
g1
tp182
g34
tp183
a((I82
g1
tp184
g11
tp185
a((I82
g58
tp186
g19
tp187
a((I82
S'B'
p188
tp189
g19
tp190
a((I82
g55
tp191
g6
tp192
a((I83
g1
tp193
g43
tp194
a((I84
g1
tp195
g58
tp196
a((I85
g1
tp197
g58
tp198
a((I86
g1
tp199
g67
tp200
a((I87
g1
tp201
g43
tp202
a((I88
g1
tp203
g58
tp204
a((I89
g1
tp205
g6
tp206
a((I90
g1
tp207
g134
tp208
a((I91
g1
tp209
g134
tp210
a((I92
g1
tp211
g55
tp212
a((I93
g1
tp213
g58
tp214
a((I94
g1
tp215
g92
tp216
a((I95
g1
tp217
g80
tp218
a((I96
g1
tp219
g83
tp220
a((I97
g1
tp221
g176
tp222
a((I101
g1
tp223
g67
tp224
a((I102
g1
tp225
g19
tp226
a((I103
g1
tp227
g83
tp228
a((I104
g1
tp229
g22
tp230
a((I105
g1
tp231
g3
tp232
a((I106
g1
tp233
g22
tp234
a((I107
g1
tp235
g43
tp236
a((I108
g1
tp237
g11
tp238
a((I109
g1
tp239
g6
tp240
a((I110
g1
tp241
g43
tp242
a((I111
g1
tp243
g6
tp244
a((I112
g1
tp245
g19
tp246
a((I113
g1
tp247
g19
tp248
a.