(lp0
((I1
S' '
p1
tp2
S'E'
p3
tp4
a((I2
g1
tp5
S'V'
p6
tp7
a((I3
g1
tp8
S'Q'
p9
tp10
a((I4
g1
tp11
S'L'
p12
tp13
a((I5
g1
tp14
g6
tp15
a((I6
g1
tp16
g3
tp17
a((I7
g1
tp18
S'S'
p19
tp20
a((I8
g1
tp21
S'G'
p22
tp23
a((I9
g1
tp24
g22
tp25
a((I10
g1
tp26
g22
tp27
a((I11
g1
tp28
g12
tp29
a((I12
g1
tp30
g6
tp31
a((I13
g1
tp32
g9
tp33
a((I14
g1
tp34
S'P'
p35
tp36
a((I15
g1
tp37
g22
tp38
a((I16
g1
tp39
g22
tp40
a((I17
g1
tp41
g19
tp42
a((I18
g1
tp43
g12
tp44
a((I19
g1
tp45
S'K'
p46
tp47
a((I20
g1
tp48
g12
tp49
a((I21
g1
tp50
g19
tp51
a((I22
g1
tp52
S'C'
p53
tp54
a((I23
g1
tp55
S'A'
p56
tp57
a((I24
g1
tp58
g56
tp59
a((I25
g1
tp60
g19
tp61
a((I26
g1
tp62
g22
tp63
a((I27
g1
tp64
S'F'
p65
tp66
a((I28
g1
tp67
S'T'
p68
tp69
a((I29
g1
tp70
g65
tp71
a((I30
g1
tp72
g19
tp73
a((I31
g1
tp74
g22
tp75
a((I32
g1
tp76
g19
tp77
a((I33
g1
tp78
g56
tp79
a((I34
g1
tp80
S'M'
p81
tp82
a((I35
g1
tp83
S'H'
p84
tp85
a((I36
g1
tp86
S'W'
p87
tp88
a((I37
g1
tp89
g6
tp90
a((I38
g1
tp91
S'R'
p92
tp93
a((I39
g1
tp94
g9
tp95
a((I40
g1
tp96
g56
tp97
a((I41
g1
tp98
g19
tp99
a((I42
g1
tp100
g22
tp101
a((I43
g1
tp102
g46
tp103
a((I44
g1
tp104
g22
tp105
a((I45
g1
tp106
g12
tp107
a((I46
g1
tp108
g3
tp109
a((I47
g1
tp110
g87
tp111
a((I48
g1
tp112
g6
tp113
a((I49
g1
tp114
g22
tp115
a((I50
g1
tp116
g92
tp117
a((I51
g1
tp118
S'I'
p119
tp120
a((I52
g1
tp121
g92
tp122
a((I52
g56
tp123
g19
tp124
a((I52
S'B'
p125
tp126
g46
tp127
a((I52
g53
tp128
g56
tp129
a((I53
g1
tp130
S'N'
p131
tp132
a((I54
g1
tp133
g19
tp134
a((I55
g1
tp135
S'Y'
p136
tp137
a((I56
g1
tp138
g56
tp139
a((I57
g1
tp140
g68
tp141
a((I58
g1
tp142
g56
tp143
a((I59
g1
tp144
g136
tp145
a((I60
g1
tp146
g56
tp147
a((I61
g1
tp148
g56
tp149
a((I62
g1
tp150
g19
tp151
a((I63
g1
tp152
g6
tp153
a((I64
g1
tp154
g46
tp155
a((I65
g1
tp156
g22
tp157
a((I66
g1
tp158
g92
tp159
a((I67
g1
tp160
g65
tp161
a((I68
g1
tp162
g68
tp163
a((I69
g1
tp164
g119
tp165
a((I70
g1
tp166
g19
tp167
a((I71
g1
tp168
g92
tp169
a((I72
g1
tp170
S'D'
p171
tp172
a((I73
g1
tp173
g171
tp174
a((I74
g1
tp175
g19
tp176
a((I75
g1
tp177
g46
tp178
a((I76
g1
tp179
g131
tp180
a((I77
g1
tp181
g68
tp182
a((I78
g1
tp183
g56
tp184
a((I79
g1
tp185
g136
tp186
a((I80
g1
tp187
g12
tp188
a((I81
g1
tp189
g9
tp190
a((I82
g1
tp191
g81
tp192
a((I82
g56
tp193
g131
tp194
a((I82
g125
tp195
g19
tp196
a((I82
g53
tp197
g12
tp198
a((I83
g1
tp199
g46
tp200
a((I84
g1
tp201
g68
tp202
a((I85
g1
tp203
g3
tp204
a((I86
g1
tp205
g171
tp206
a((I87
g1
tp207
g68
tp208
a((I88
g1
tp209
g56
tp210
a((I89
g1
tp211
g6
tp212
a((I90
g1
tp213
g136
tp214
a((I91
g1
tp215
g136
tp216
a((I92
g1
tp217
g53
tp218
a((I93
g1
tp219
g68
tp220
a((I94
g1
tp221
g92
tp222
a((I95
g1
tp223
g136
tp224
a((I96
g1
tp225
g65
tp226
a((I101
g1
tp227
g171
tp228
a((I102
g1
tp229
g136
tp230
a((I103
g1
tp231
g87
tp232
a((I104
g1
tp233
g22
tp234
a((I105
g1
tp235
g9
tp236
a((I106
g1
tp237
g22
tp238
a((I107
g1
tp239
g68
tp240
a((I108
g1
tp241
g12
tp242
a((I109
g1
tp243
g6
tp244
a((I110
g1
tp245
g68
tp246
a((I111
g1
tp247
g6
tp248
a((I112
g1
tp249
g19
tp250
a((I113
g1
tp251
g19
tp252
a.