(lp0
((I1
S' '
p1
tp2
S'Q'
p3
tp4
a((I2
g1
tp5
S'V'
p6
tp7
a((I3
g1
tp8
g3
tp9
a((I4
g1
tp10
S'L'
p11
tp12
a((I5
g1
tp13
g3
tp14
a((I6
g1
tp15
S'E'
p16
tp17
a((I7
g1
tp18
S'S'
p19
tp20
a((I8
g1
tp21
S'G'
p22
tp23
a((I9
g1
tp24
S'P'
p25
tp26
a((I10
g1
tp27
g22
tp28
a((I11
g1
tp29
g11
tp30
a((I12
g1
tp31
g6
tp32
a((I13
g1
tp33
S'K'
p34
tp35
a((I14
g1
tp36
g25
tp37
a((I15
g1
tp38
g19
tp39
a((I16
g1
tp40
g3
tp41
a((I17
g1
tp42
S'T'
p43
tp44
a((I18
g1
tp45
g11
tp46
a((I19
g1
tp47
g19
tp48
a((I20
g1
tp49
g11
tp50
a((I21
g1
tp51
g43
tp52
a((I22
g1
tp53
S'C'
p54
tp55
a((I23
g1
tp56
g43
tp57
a((I24
g1
tp58
g6
tp59
a((I25
g1
tp60
g19
tp61
a((I26
g1
tp62
g22
tp63
a((I27
g1
tp64
g22
tp65
a((I28
g1
tp66
g19
tp67
a((I29
g1
tp68
S'I'
p69
tp70
a((I30
g1
tp71
g19
tp72
a((I31
g1
tp73
g19
tp74
a((I31
S'A'
p75
tp76
g22
tp77
a((I31
S'B'
p78
tp79
g22
tp80
a((I32
g1
tp81
S'Y'
p82
tp83
a((I33
g1
tp84
g82
tp85
a((I34
g1
tp86
S'W'
p87
tp88
a((I35
g1
tp89
g19
tp90
a((I36
g1
tp91
g87
tp92
a((I37
g1
tp93
g69
tp94
a((I38
g1
tp95
S'R'
p96
tp97
a((I39
g1
tp98
g3
tp99
a((I40
g1
tp100
S'H'
p101
tp102
a((I41
g1
tp103
g25
tp104
a((I42
g1
tp105
g22
tp106
a((I43
g1
tp107
g34
tp108
a((I44
g1
tp109
g22
tp110
a((I45
g1
tp111
g11
tp112
a((I46
g1
tp113
g16
tp114
a((I47
g1
tp115
g87
tp116
a((I48
g1
tp117
g69
tp118
a((I49
g1
tp119
g22
tp120
a((I50
g1
tp121
g82
tp122
a((I51
g1
tp123
g69
tp124
a((I52
g1
tp125
g82
tp126
a((I53
g1
tp127
g82
tp128
a((I54
g1
tp129
g19
tp130
a((I55
g1
tp131
g22
tp132
a((I56
g1
tp133
g19
tp134
a((I57
g1
tp135
g43
tp136
a((I58
g1
tp137
g82
tp138
a((I59
g1
tp139
g82
tp140
a((I60
g1
tp141
S'N'
p142
tp143
a((I61
g1
tp144
g25
tp145
a((I62
g1
tp146
g19
tp147
a((I63
g1
tp148
g11
tp149
a((I64
g1
tp150
g34
tp151
a((I65
g1
tp152
g19
tp153
a((I66
g1
tp154
g11
tp155
a((I67
g1
tp156
g6
tp157
a((I68
g1
tp158
g43
tp159
a((I69
g1
tp160
g69
tp161
a((I70
g1
tp162
g19
tp163
a((I71
g1
tp164
g6
tp165
a((I72
g1
tp166
S'D'
p167
tp168
a((I73
g1
tp169
g43
tp170
a((I74
g1
tp171
g19
tp172
a((I75
g1
tp173
g34
tp174
a((I76
g1
tp175
g142
tp176
a((I77
g1
tp177
g3
tp178
a((I78
g1
tp179
S'F'
p180
tp181
a((I79
g1
tp182
g19
tp183
a((I80
g1
tp184
g11
tp185
a((I81
g1
tp186
g34
tp187
a((I82
g1
tp188
g11
tp189
a((I82
g75
tp190
g19
tp191
a((I82
g78
tp192
g19
tp193
a((I82
g54
tp194
g6
tp195
a((I83
g1
tp196
g43
tp197
a((I84
g1
tp198
g75
tp199
a((I85
g1
tp200
g75
tp201
a((I86
g1
tp202
g167
tp203
a((I87
g1
tp204
g43
tp205
a((I88
g1
tp206
g75
tp207
a((I89
g1
tp208
g6
tp209
a((I90
g1
tp210
g82
tp211
a((I91
g1
tp212
g82
tp213
a((I92
g1
tp214
g54
tp215
a((I93
g1
tp216
g75
tp217
a((I94
g1
tp218
g96
tp219
a((I95
g1
tp220
g82
tp221
a((I96
g1
tp222
g180
tp223
a((I101
g1
tp224
g167
tp225
a((I102
g1
tp226
g82
tp227
a((I103
g1
tp228
g87
tp229
a((I104
g1
tp230
g22
tp231
a((I105
g1
tp232
g3
tp233
a((I106
g1
tp234
g22
tp235
a((I107
g1
tp236
g43
tp237
a((I108
g1
tp238
g11
tp239
a((I109
g1
tp240
g6
tp241
a((I110
g1
tp242
g43
tp243
a((I111
g1
tp244
g6
tp245
a((I112
g1
tp246
g19
tp247
a((I113
g1
tp248
g19
tp249
a.