(lp0
((I1
S' '
p1
tp2
S'E'
p3
tp4
a((I2
g1
tp5
S'V'
p6
tp7
a((I3
g1
tp8
g3
tp9
a((I4
g1
tp10
S'L'
p11
tp12
a((I5
g1
tp13
S'I'
p14
tp15
a((I6
g1
tp16
g3
tp17
a((I7
g1
tp18
S'P'
p19
tp20
a((I8
g1
tp21
S'T'
p22
tp23
a((I9
g1
tp24
g3
tp25
a((I10
g1
tp26
S'D'
p27
tp28
a((I11
g1
tp29
g11
tp30
a((I12
g1
tp31
S'R'
p32
tp33
a((I13
g1
tp34
S'Q'
p35
tp36
a((I14
g1
tp37
g19
tp38
a((I15
g1
tp39
S'G'
p40
tp41
a((I16
g1
tp42
S'K'
p43
tp44
a((I17
g1
tp45
S'F'
p46
tp47
a((I18
g1
tp48
g11
tp49
a((I19
g1
tp50
g32
tp51
a((I20
g1
tp52
g11
tp53
a((I21
g1
tp54
S'S'
p55
tp56
a((I22
g1
tp57
S'C'
p58
tp59
a((I23
g1
tp60
g6
tp61
a((I24
g1
tp62
S'A'
p63
tp64
a((I25
g1
tp65
g55
tp66
a((I26
g1
tp67
g32
tp68
a((I27
g1
tp69
g46
tp70
a((I28
g1
tp71
g63
tp72
a((I29
g1
tp73
g46
tp74
a((I30
g1
tp75
g55
tp76
a((I32
g1
tp77
g55
tp78
a((I33
g1
tp79
g46
tp80
a((I34
g1
tp81
S'M'
p82
tp83
a((I35
g1
tp84
g55
tp85
a((I36
g1
tp86
g19
tp87
a((I37
g1
tp88
g6
tp89
a((I38
g1
tp90
S'H'
p91
tp92
a((I39
g1
tp93
g35
tp94
a((I40
g1
tp95
g55
tp96
a((I41
g1
tp97
g63
tp98
a((I42
g1
tp99
g40
tp100
a((I43
g1
tp101
g43
tp102
a((I44
g1
tp103
g40
tp104
a((I45
g1
tp105
g11
tp106
a((I46
g1
tp107
g3
tp108
a((I47
g1
tp109
g6
tp110
a((I48
g1
tp111
g14
tp112
a((I49
g1
tp113
g27
tp114
a((I50
g1
tp115
g14
tp116
a((I51
g1
tp117
g43
tp118
a((I52
g1
tp119
g27
tp120
a((I53
g1
tp121
g27
tp122
a((I54
g1
tp123
g40
tp124
a((I55
g1
tp125
g55
tp126
a((I56
g1
tp127
g35
tp128
a((I57
g1
tp129
g14
tp130
a((I58
g1
tp131
g91
tp132
a((I59
g1
tp133
g91
tp134
a((I60
g1
tp135
g63
tp136
a((I61
g1
tp137
g27
tp138
a((I62
g1
tp139
g55
tp140
a((I63
g1
tp141
g6
tp142
a((I64
g1
tp143
g43
tp144
a((I65
g1
tp145
g40
tp146
a((I66
g1
tp147
g32
tp148
a((I67
g1
tp149
g46
tp150
a((I68
g1
tp151
g55
tp152
a((I69
g1
tp153
g14
tp154
a((I70
g1
tp155
g55
tp156
a((I71
g1
tp157
g43
tp158
a((I72
g1
tp159
g27
tp160
a((I73
g1
tp161
S'N'
p162
tp163
a((I74
g1
tp164
g63
tp165
a((I75
g1
tp166
g43
tp167
a((I76
g1
tp168
g162
tp169
a((I77
g1
tp170
g55
tp171
a((I78
g1
tp172
g11
tp173
a((I79
g1
tp174
S'Y'
p175
tp176
a((I80
g1
tp177
g11
tp178
a((I81
g1
tp179
g35
tp180
a((I82
g1
tp181
g82
tp182
a((I82
g63
tp183
g162
tp184
a((I82
S'B'
p185
tp186
g55
tp187
a((I82
g58
tp188
g35
tp189
a((I83
g1
tp190
g32
tp191
a((I84
g1
tp192
g22
tp193
a((I85
g1
tp194
g3
tp195
a((I86
g1
tp196
g27
tp197
a((I87
g1
tp198
g82
tp199
a((I88
g1
tp200
g63
tp201
a((I89
g1
tp202
g6
tp203
a((I90
g1
tp204
g175
tp205
a((I91
g1
tp206
g40
tp207
a((I92
g1
tp208
g58
tp209
a((I93
g1
tp210
g22
tp211
a((I94
g1
tp212
g40
tp213
a((I95
g1
tp214
g162
tp215
a((I96
g1
tp216
S'W'
p217
tp218
a((I97
g1
tp219
g46
tp220
a((I101
g1
tp221
g27
tp222
a((I102
g1
tp223
g55
tp224
a((I103
g1
tp225
g217
tp226
a((I104
g1
tp227
g40
tp228
a((I105
g1
tp229
g35
tp230
a((I106
g1
tp231
g40
tp232
a((I107
g1
tp233
g22
tp234
a((I108
g1
tp235
g11
tp236
a((I109
g1
tp237
g6
tp238
a((I110
g1
tp239
g22
tp240
a((I111
g1
tp241
g6
tp242
a((I112
g1
tp243
g55
tp244
a((I113
g1
tp245
g55
tp246
a.