(lp0
((I1
S' '
p1
tp2
S'E'
p3
tp4
a((I2
g1
tp5
S'V'
p6
tp7
a((I3
g1
tp8
S'Q'
p9
tp10
a((I4
g1
tp11
S'L'
p12
tp13
a((I5
g1
tp14
g6
tp15
a((I6
g1
tp16
g3
tp17
a((I7
g1
tp18
S'S'
p19
tp20
a((I8
g1
tp21
S'G'
p22
tp23
a((I9
g1
tp24
g3
tp25
a((I10
g1
tp26
S'D'
p27
tp28
a((I11
g1
tp29
S'P'
p30
tp31
a((I12
g1
tp32
S'R'
p33
tp34
a((I13
g1
tp35
g9
tp36
a((I14
g1
tp37
g30
tp38
a((I15
g1
tp39
g22
tp40
a((I16
g1
tp41
g22
tp42
a((I17
g1
tp43
g19
tp44
a((I18
g1
tp45
g12
tp46
a((I19
g1
tp47
g33
tp48
a((I20
g1
tp49
g12
tp50
a((I21
g1
tp51
g19
tp52
a((I22
g1
tp53
S'C'
p54
tp55
a((I23
g1
tp56
S'A'
p57
tp58
a((I24
g1
tp59
g27
tp60
a((I25
g1
tp61
g19
tp62
a((I26
g1
tp63
g22
tp64
a((I27
g1
tp65
g12
tp66
a((I28
g1
tp67
S'T'
p68
tp69
a((I29
g1
tp70
S'F'
p71
tp72
a((I30
g1
tp73
g19
tp74
a((I32
g1
tp75
g19
tp76
a((I33
g1
tp77
S'Y'
p78
tp79
a((I34
g1
tp80
g33
tp81
a((I35
g1
tp82
g19
tp83
a((I36
g1
tp84
g19
tp85
a((I37
g1
tp86
g6
tp87
a((I38
g1
tp88
g19
tp89
a((I39
g1
tp90
g9
tp91
a((I40
g1
tp92
g57
tp93
a((I41
g1
tp94
g30
tp95
a((I42
g1
tp96
g22
tp97
a((I43
g1
tp98
S'K'
p99
tp100
a((I44
g1
tp101
g22
tp102
a((I45
g1
tp103
g12
tp104
a((I46
g1
tp105
g3
tp106
a((I47
g1
tp107
g6
tp108
a((I48
g1
tp109
g6
tp110
a((I49
g1
tp111
g27
tp112
a((I50
g1
tp113
S'I'
p114
tp115
a((I51
g1
tp116
g9
tp117
a((I52
g1
tp118
g54
tp119
a((I53
g1
tp120
g27
tp121
a((I54
g1
tp122
g22
tp123
a((I55
g1
tp124
g19
tp125
a((I56
g1
tp126
g9
tp127
a((I57
g1
tp128
g114
tp129
a((I58
g1
tp130
g54
tp131
a((I59
g1
tp132
g78
tp133
a((I60
g1
tp134
g57
tp135
a((I61
g1
tp136
S'-'
p137
tp138
a((I62
g1
tp139
g19
tp140
a((I63
g1
tp141
g12
tp142
a((I64
g1
tp143
g99
tp144
a((I65
g1
tp145
g19
tp146
a((I66
g1
tp147
g99
tp148
a((I67
g1
tp149
g71
tp150
a((I68
g1
tp151
g68
tp152
a((I69
g1
tp153
g114
tp154
a((I70
g1
tp155
g19
tp156
a((I71
g1
tp157
g99
tp158
a((I72
g1
tp159
g3
tp160
a((I73
g1
tp161
S'N'
p162
tp163
a((I74
g1
tp164
g57
tp165
a((I75
g1
tp166
g99
tp167
a((I76
g1
tp168
g162
tp169
a((I77
g1
tp170
g19
tp171
a((I78
g1
tp172
g12
tp173
a((I79
g1
tp174
g78
tp175
a((I80
g1
tp176
g12
tp177
a((I81
g1
tp178
g12
tp179
a((I82
g1
tp180
S'M'
p181
tp182
a((I82
g57
tp183
g162
tp184
a((I82
S'B'
p185
tp186
g19
tp187
a((I82
g54
tp188
g12
tp189
a((I83
g1
tp190
g33
tp191
a((I84
g1
tp192
g57
tp193
a((I85
g1
tp194
g3
tp195
a((I86
g1
tp196
g22
tp197
a((I87
g1
tp198
g68
tp199
a((I88
g1
tp200
g57
tp201
a((I89
g1
tp202
g6
tp203
a((I90
g1
tp204
g54
tp205
a((I91
g1
tp206
g78
tp207
a((I92
g1
tp208
g54
tp209
a((I93
g1
tp210
g181
tp211
a((I94
g1
tp212
g57
tp213
a((I95
g1
tp214
g3
tp215
a((I96
g1
tp216
g78
tp217
a((I97
g1
tp218
g71
tp219
a((I101
g1
tp220
g9
tp221
a((I102
g1
tp222
S'H'
p223
tp224
a((I103
g1
tp225
S'W'
p226
tp227
a((I104
g1
tp228
g22
tp229
a((I105
g1
tp230
g9
tp231
a((I106
g1
tp232
g22
tp233
a((I107
g1
tp234
g68
tp235
a((I108
g1
tp236
g12
tp237
a((I109
g1
tp238
g6
tp239
a((I110
g1
tp240
g68
tp241
a((I111
g1
tp242
g6
tp243
a((I112
g1
tp244
g19
tp245
a((I113
g1
tp246
g19
tp247
a.