(lp0
((I1
S' '
p1
tp2
S'Q'
p3
tp4
a((I2
g1
tp5
S'V'
p6
tp7
a((I3
g1
tp8
g3
tp9
a((I4
g1
tp10
S'L'
p11
tp12
a((I5
g1
tp13
g6
tp14
a((I6
g1
tp15
g3
tp16
a((I7
g1
tp17
S'S'
p18
tp19
a((I8
g1
tp20
S'G'
p21
tp22
a((I9
g1
tp23
S'A'
p24
tp25
a((I10
g1
tp26
S'E'
p27
tp28
a((I11
g1
tp29
g6
tp30
a((I12
g1
tp31
S'K'
p32
tp33
a((I13
g1
tp34
g32
tp35
a((I14
g1
tp36
S'P'
p37
tp38
a((I15
g1
tp39
g21
tp40
a((I16
g1
tp41
g24
tp42
a((I17
g1
tp43
g18
tp44
a((I18
g1
tp45
g6
tp46
a((I19
g1
tp47
g32
tp48
a((I20
g1
tp49
g6
tp50
a((I21
g1
tp51
g18
tp52
a((I22
g1
tp53
S'C'
p54
tp55
a((I23
g1
tp56
g32
tp57
a((I24
g1
tp58
g6
tp59
a((I25
g1
tp60
g18
tp61
a((I26
g1
tp62
g21
tp63
a((I27
g1
tp64
S'Y'
p65
tp66
a((I28
g1
tp67
S'T'
p68
tp69
a((I29
g1
tp70
g11
tp71
a((I30
g1
tp72
g68
tp73
a((I31
g1
tp74
g27
tp75
a((I32
g1
tp76
g11
tp77
a((I33
g1
tp78
g18
tp79
a((I34
g1
tp80
S'M'
p81
tp82
a((I35
g1
tp83
S'H'
p84
tp85
a((I36
g1
tp86
S'W'
p87
tp88
a((I37
g1
tp89
g6
tp90
a((I38
g1
tp91
S'R'
p92
tp93
a((I39
g1
tp94
g3
tp95
a((I40
g1
tp96
g24
tp97
a((I41
g1
tp98
g37
tp99
a((I42
g1
tp100
g21
tp101
a((I43
g1
tp102
g32
tp103
a((I44
g1
tp104
g21
tp105
a((I45
g1
tp106
g11
tp107
a((I46
g1
tp108
g27
tp109
a((I47
g1
tp110
g87
tp111
a((I48
g1
tp112
g81
tp113
a((I49
g1
tp114
g21
tp115
a((I50
g1
tp116
g21
tp117
a((I51
g1
tp118
S'F'
p119
tp120
a((I52
g1
tp121
S'D'
p122
tp123
a((I52
g24
tp124
g37
tp125
a((I53
g1
tp126
g27
tp127
a((I54
g1
tp128
g122
tp129
a((I55
g1
tp130
g21
tp131
a((I56
g1
tp132
g27
tp133
a((I57
g1
tp134
g68
tp135
a((I58
g1
tp136
S'I'
p137
tp138
a((I59
g1
tp139
g65
tp140
a((I60
g1
tp141
g24
tp142
a((I61
g1
tp143
g3
tp144
a((I62
g1
tp145
g32
tp146
a((I63
g1
tp147
g119
tp148
a((I64
g1
tp149
g3
tp150
a((I65
g1
tp151
g21
tp152
a((I66
g1
tp153
g92
tp154
a((I67
g1
tp155
g6
tp156
a((I68
g1
tp157
g68
tp158
a((I69
g1
tp159
g81
tp160
a((I70
g1
tp161
g68
tp162
a((I71
g1
tp163
g27
tp164
a((I72
g1
tp165
g122
tp166
a((I73
g1
tp167
g68
tp168
a((I74
g1
tp169
g18
tp170
a((I75
g1
tp171
g68
tp172
a((I76
g1
tp173
g122
tp174
a((I77
g1
tp175
g68
tp176
a((I78
g1
tp177
g24
tp178
a((I79
g1
tp179
g65
tp180
a((I80
g1
tp181
g81
tp182
a((I81
g1
tp183
g27
tp184
a((I82
g1
tp185
g11
tp186
a((I82
g24
tp187
g18
tp188
a((I82
S'B'
p189
tp190
g18
tp191
a((I82
g54
tp192
g11
tp193
a((I83
g1
tp194
g92
tp195
a((I84
g1
tp196
g18
tp197
a((I85
g1
tp198
g27
tp199
a((I86
g1
tp200
g122
tp201
a((I87
g1
tp202
g68
tp203
a((I88
g1
tp204
g24
tp205
a((I89
g1
tp206
g6
tp207
a((I90
g1
tp208
g65
tp209
a((I91
g1
tp210
g65
tp211
a((I92
g1
tp212
g54
tp213
a((I93
g1
tp214
g24
tp215
a((I94
g1
tp216
g68
tp217
a((I95
g1
tp218
g122
tp219
a((I96
g1
tp220
g24
tp221
a((I97
g1
tp222
g119
tp223
a((I101
g1
tp224
g122
tp225
a((I102
g1
tp226
g6
tp227
a((I103
g1
tp228
g87
tp229
a((I104
g1
tp230
g21
tp231
a((I105
g1
tp232
g3
tp233
a((I106
g1
tp234
g21
tp235
a((I107
g1
tp236
g68
tp237
a((I108
g1
tp238
g81
tp239
a((I109
g1
tp240
g6
tp241
a((I110
g1
tp242
g68
tp243
a((I111
g1
tp244
g6
tp245
a((I112
g1
tp246
g18
tp247
a((I113
g1
tp248
g18
tp249
a.