(lp0
((I1
S' '
p1
tp2
S'Q'
p3
tp4
a((I2
g1
tp5
S'V'
p6
tp7
a((I3
g1
tp8
g3
tp9
a((I4
g1
tp10
S'L'
p11
tp12
a((I5
g1
tp13
g6
tp14
a((I6
g1
tp15
g3
tp16
a((I7
g1
tp17
S'S'
p18
tp19
a((I8
g1
tp20
S'G'
p21
tp22
a((I9
g1
tp23
S'H'
p24
tp25
a((I10
g1
tp26
S'E'
p27
tp28
a((I11
g1
tp29
g6
tp30
a((I12
g1
tp31
S'K'
p32
tp33
a((I13
g1
tp34
g3
tp35
a((I14
g1
tp36
S'P'
p37
tp38
a((I15
g1
tp39
g21
tp40
a((I16
g1
tp41
S'A'
p42
tp43
a((I17
g1
tp44
g18
tp45
a((I18
g1
tp46
g6
tp47
a((I19
g1
tp48
g32
tp49
a((I20
g1
tp50
g6
tp51
a((I21
g1
tp52
g18
tp53
a((I22
g1
tp54
S'C'
p55
tp56
a((I23
g1
tp57
g32
tp58
a((I24
g1
tp59
g42
tp60
a((I25
g1
tp61
g18
tp62
a((I26
g1
tp63
g21
tp64
a((I27
g1
tp65
S'Y'
p66
tp67
a((I28
g1
tp68
g18
tp69
a((I29
g1
tp70
S'F'
p71
tp72
a((I30
g1
tp73
S'T'
p74
tp75
a((I31
g1
tp76
g74
tp77
a((I32
g1
tp78
g66
tp79
a((I33
g1
tp80
g21
tp81
a((I34
g1
tp82
S'M'
p83
tp84
a((I35
g1
tp85
S'N'
p86
tp87
a((I36
g1
tp88
S'W'
p89
tp90
a((I37
g1
tp91
g6
tp92
a((I38
g1
tp93
g37
tp94
a((I39
g1
tp95
g3
tp96
a((I40
g1
tp97
g42
tp98
a((I41
g1
tp99
g37
tp100
a((I42
g1
tp101
g21
tp102
a((I43
g1
tp103
g3
tp104
a((I44
g1
tp105
g21
tp106
a((I45
g1
tp107
g11
tp108
a((I46
g1
tp109
g27
tp110
a((I47
g1
tp111
g89
tp112
a((I48
g1
tp113
g83
tp114
a((I49
g1
tp115
g21
tp116
a((I50
g1
tp117
g89
tp118
a((I51
g1
tp119
g71
tp120
a((I52
g1
tp121
g86
tp122
a((I52
g42
tp123
g74
tp124
a((I53
g1
tp125
g66
tp126
a((I54
g1
tp127
g74
tp128
a((I55
g1
tp129
g21
tp130
a((I56
g1
tp131
g86
tp132
a((I57
g1
tp133
g37
tp134
a((I58
g1
tp135
g74
tp136
a((I59
g1
tp137
g66
tp138
a((I60
g1
tp139
g42
tp140
a((I61
g1
tp141
g3
tp142
a((I62
g1
tp143
g21
tp144
a((I63
g1
tp145
g71
tp146
a((I64
g1
tp147
g74
tp148
a((I65
g1
tp149
g21
tp150
a((I66
g1
tp151
S'R'
p152
tp153
a((I67
g1
tp154
g71
tp155
a((I68
g1
tp156
g6
tp157
a((I69
g1
tp158
g71
tp159
a((I70
g1
tp160
g18
tp161
a((I71
g1
tp162
g83
tp163
a((I72
g1
tp164
S'D'
p165
tp166
a((I73
g1
tp167
g74
tp168
a((I74
g1
tp169
g18
tp170
a((I75
g1
tp171
g42
tp172
a((I76
g1
tp173
g18
tp174
a((I77
g1
tp175
g74
tp176
a((I78
g1
tp177
g42
tp178
a((I79
g1
tp179
g66
tp180
a((I80
g1
tp181
g11
tp182
a((I81
g1
tp183
g3
tp184
a((I82
g1
tp185
S'I'
p186
tp187
a((I82
g42
tp188
g18
tp189
a((I82
S'B'
p190
tp191
g18
tp192
a((I82
g55
tp193
g11
tp194
a((I83
g1
tp195
g32
tp196
a((I84
g1
tp197
g42
tp198
a((I85
g1
tp199
g27
tp200
a((I86
g1
tp201
g165
tp202
a((I87
g1
tp203
g83
tp204
a((I88
g1
tp205
g42
tp206
a((I89
g1
tp207
g83
tp208
a((I90
g1
tp209
g66
tp210
a((I91
g1
tp211
g66
tp212
a((I92
g1
tp213
g55
tp214
a((I93
g1
tp215
g42
tp216
a((I94
g1
tp217
g152
tp218
a((I95
g1
tp219
g66
tp220
a((I96
g1
tp221
g66
tp222
a((I97
g1
tp223
g66
tp224
a((I98
g1
tp225
g66
tp226
a((I99
g1
tp227
g66
tp228
a((I100
g1
tp229
g21
tp230
a((I100
g42
tp231
g83
tp232
a((I101
g1
tp233
g165
tp234
a((I102
g1
tp235
g6
tp236
a((I103
g1
tp237
g89
tp238
a((I104
g1
tp239
g21
tp240
a((I105
g1
tp241
g3
tp242
a((I106
g1
tp243
g21
tp244
a((I107
g1
tp245
g74
tp246
a((I108
g1
tp247
g74
tp248
a((I109
g1
tp249
g6
tp250
a((I110
g1
tp251
g74
tp252
a((I111
g1
tp253
g6
tp254
a((I112
g1
tp255
g18
tp256
a((I113
g1
tp257
g18
tp258
a.