(lp0
((I1
S' '
p1
tp2
S'Q'
p3
tp4
a((I2
g1
tp5
S'V'
p6
tp7
a((I3
g1
tp8
g3
tp9
a((I4
g1
tp10
S'L'
p11
tp12
a((I5
g1
tp13
g3
tp14
a((I6
g1
tp15
S'E'
p16
tp17
a((I7
g1
tp18
S'S'
p19
tp20
a((I8
g1
tp21
S'G'
p22
tp23
a((I9
g1
tp24
S'P'
p25
tp26
a((I10
g1
tp27
g22
tp28
a((I11
g1
tp29
g11
tp30
a((I12
g1
tp31
g6
tp32
a((I13
g1
tp33
S'K'
p34
tp35
a((I14
g1
tp36
g25
tp37
a((I15
g1
tp38
g19
tp39
a((I16
g1
tp40
S'D'
p41
tp42
a((I17
g1
tp43
S'T'
p44
tp45
a((I18
g1
tp46
g11
tp47
a((I19
g1
tp48
g19
tp49
a((I20
g1
tp50
g11
tp51
a((I21
g1
tp52
g44
tp53
a((I22
g1
tp54
S'C'
p55
tp56
a((I23
g1
tp57
S'A'
p58
tp59
a((I24
g1
tp60
g6
tp61
a((I25
g1
tp62
g19
tp63
a((I26
g1
tp64
g22
tp65
a((I27
g1
tp66
S'Y'
p67
tp68
a((I28
g1
tp69
g19
tp70
a((I29
g1
tp71
S'I'
p72
tp73
a((I30
g1
tp74
g19
tp75
a((I31
g1
tp76
g19
tp77
a((I31
g58
tp78
g19
tp79
a((I32
g1
tp80
S'N'
p81
tp82
a((I33
g1
tp83
S'W'
p84
tp85
a((I34
g1
tp86
g84
tp87
a((I35
g1
tp88
g22
tp89
a((I36
g1
tp90
g84
tp91
a((I37
g1
tp92
g72
tp93
a((I38
g1
tp94
S'R'
p95
tp96
a((I39
g1
tp97
g3
tp98
a((I40
g1
tp99
g25
tp100
a((I41
g1
tp101
g25
tp102
a((I42
g1
tp103
g22
tp104
a((I43
g1
tp105
g34
tp106
a((I44
g1
tp107
g22
tp108
a((I45
g1
tp109
g11
tp110
a((I46
g1
tp111
g16
tp112
a((I47
g1
tp113
g84
tp114
a((I48
g1
tp115
g72
tp116
a((I49
g1
tp117
g22
tp118
a((I50
g1
tp119
g67
tp120
a((I51
g1
tp121
g72
tp122
a((I52
g1
tp123
g67
tp124
a((I53
g1
tp125
g67
tp126
a((I54
g1
tp127
g19
tp128
a((I55
g1
tp129
g22
tp130
a((I56
g1
tp131
g19
tp132
a((I57
g1
tp133
g44
tp134
a((I58
g1
tp135
g67
tp136
a((I59
g1
tp137
g67
tp138
a((I60
g1
tp139
g81
tp140
a((I61
g1
tp141
g25
tp142
a((I62
g1
tp143
g19
tp144
a((I63
g1
tp145
g11
tp146
a((I64
g1
tp147
g34
tp148
a((I65
g1
tp149
g19
tp150
a((I66
g1
tp151
g95
tp152
a((I67
g1
tp153
g6
tp154
a((I68
g1
tp155
g44
tp156
a((I69
g1
tp157
S'M'
p158
tp159
a((I70
g1
tp160
g19
tp161
a((I71
g1
tp162
g6
tp163
a((I72
g1
tp164
g41
tp165
a((I73
g1
tp166
g44
tp167
a((I74
g1
tp168
g19
tp169
a((I75
g1
tp170
g34
tp171
a((I76
g1
tp172
g81
tp173
a((I77
g1
tp174
g3
tp175
a((I78
g1
tp176
S'F'
p177
tp178
a((I79
g1
tp179
g19
tp180
a((I80
g1
tp181
g11
tp182
a((I81
g1
tp183
g34
tp184
a((I82
g1
tp185
g11
tp186
a((I82
g58
tp187
g19
tp188
a((I82
S'B'
p189
tp190
g19
tp191
a((I82
g55
tp192
g6
tp193
a((I83
g1
tp194
g44
tp195
a((I84
g1
tp196
g58
tp197
a((I85
g1
tp198
g6
tp199
a((I86
g1
tp200
g41
tp201
a((I87
g1
tp202
g44
tp203
a((I88
g1
tp204
g58
tp205
a((I89
g1
tp206
g6
tp207
a((I90
g1
tp208
g67
tp209
a((I91
g1
tp210
g67
tp211
a((I92
g1
tp212
g55
tp213
a((I93
g1
tp214
g58
tp215
a((I94
g1
tp216
g95
tp217
a((I95
g1
tp218
g41
tp219
a((I96
g1
tp220
g58
tp221
a((I97
g1
tp222
g177
tp223
a((I101
g1
tp224
g41
tp225
a((I102
g1
tp226
g6
tp227
a((I103
g1
tp228
g84
tp229
a((I104
g1
tp230
g22
tp231
a((I105
g1
tp232
g3
tp233
a((I106
g1
tp234
g22
tp235
a((I107
g1
tp236
g44
tp237
a((I108
g1
tp238
g158
tp239
a((I109
g1
tp240
g6
tp241
a((I110
g1
tp242
g44
tp243
a((I111
g1
tp244
g6
tp245
a((I112
g1
tp246
g19
tp247
a((I113
g1
tp248
g19
tp249
a.