(lp0
((I1
S' '
p1
tp2
S'T'
p3
tp4
a((I2
g1
tp5
S'V'
p6
tp7
a((I3
g1
tp8
S'Q'
p9
tp10
a((I4
g1
tp11
S'L'
p12
tp13
a((I5
g1
tp14
g6
tp15
a((I6
g1
tp16
S'E'
p17
tp18
a((I7
g1
tp19
S'S'
p20
tp21
a((I8
g1
tp22
S'G'
p23
tp24
a((I9
g1
tp25
g23
tp26
a((I10
g1
tp27
g23
tp28
a((I11
g1
tp29
g12
tp30
a((I12
g1
tp31
g6
tp32
a((I13
g1
tp33
g17
tp34
a((I14
g1
tp35
S'P'
p36
tp37
a((I15
g1
tp38
g23
tp39
a((I16
g1
tp40
g23
tp41
a((I17
g1
tp42
g20
tp43
a((I18
g1
tp44
g12
tp45
a((I19
g1
tp46
S'R'
p47
tp48
a((I20
g1
tp49
g12
tp50
a((I21
g1
tp51
g20
tp52
a((I22
g1
tp53
S'C'
p54
tp55
a((I23
g1
tp56
S'A'
p57
tp58
a((I24
g1
tp59
g57
tp60
a((I25
g1
tp61
g20
tp62
a((I26
g1
tp63
g23
tp64
a((I27
g1
tp65
S'F'
p66
tp67
a((I28
g1
tp68
g3
tp69
a((I29
g1
tp70
g66
tp71
a((I30
g1
tp72
g20
tp73
a((I31
g1
tp74
S'N'
p75
tp76
a((I32
g1
tp77
g20
tp78
a((I33
g1
tp79
S'D'
p80
tp81
a((I34
g1
tp82
S'M'
p83
tp84
a((I35
g1
tp85
g75
tp86
a((I36
g1
tp87
S'W'
p88
tp89
a((I37
g1
tp90
g6
tp91
a((I38
g1
tp92
g47
tp93
a((I39
g1
tp94
g9
tp95
a((I40
g1
tp96
g57
tp97
a((I41
g1
tp98
g36
tp99
a((I42
g1
tp100
g23
tp101
a((I43
g1
tp102
S'K'
p103
tp104
a((I44
g1
tp105
g23
tp106
a((I45
g1
tp107
g12
tp108
a((I46
g1
tp109
g17
tp110
a((I47
g1
tp111
g88
tp112
a((I48
g1
tp113
g6
tp114
a((I49
g1
tp115
g20
tp116
a((I50
g1
tp117
g23
tp118
a((I51
g1
tp119
g6
tp120
a((I52
g1
tp121
g20
tp122
a((I52
g57
tp123
g88
tp124
a((I53
g1
tp125
g75
tp126
a((I54
g1
tp127
g23
tp128
a((I55
g1
tp129
g20
tp130
a((I56
g1
tp131
g47
tp132
a((I57
g1
tp133
g3
tp134
a((I58
g1
tp135
S'H'
p136
tp137
a((I59
g1
tp138
S'Y'
p139
tp140
a((I60
g1
tp141
g57
tp142
a((I61
g1
tp143
g80
tp144
a((I62
g1
tp145
g20
tp146
a((I63
g1
tp147
g6
tp148
a((I64
g1
tp149
g103
tp150
a((I65
g1
tp151
g23
tp152
a((I66
g1
tp153
g47
tp154
a((I67
g1
tp155
g66
tp156
a((I68
g1
tp157
S'I'
p158
tp159
a((I69
g1
tp160
g158
tp161
a((I70
g1
tp162
g20
tp163
a((I71
g1
tp164
g47
tp165
a((I72
g1
tp166
g80
tp167
a((I73
g1
tp168
g75
tp169
a((I74
g1
tp170
g20
tp171
a((I75
g1
tp172
g47
tp173
a((I76
g1
tp174
g75
tp175
a((I77
g1
tp176
g66
tp177
a((I78
g1
tp178
g12
tp179
a((I79
g1
tp180
g139
tp181
a((I80
g1
tp182
g9
tp183
a((I81
g1
tp184
g9
tp185
a((I82
g1
tp186
g83
tp187
a((I82
g57
tp188
g75
tp189
a((I82
S'B'
p190
tp191
g20
tp192
a((I82
g54
tp193
g12
tp194
a((I83
g1
tp195
g47
tp196
a((I84
g1
tp197
g36
tp198
a((I85
g1
tp199
g17
tp200
a((I86
g1
tp201
g80
tp202
a((I87
g1
tp203
g83
tp204
a((I88
g1
tp205
g57
tp206
a((I89
g1
tp207
g6
tp208
a((I90
g1
tp209
g139
tp210
a((I91
g1
tp211
g139
tp212
a((I92
g1
tp213
g54
tp214
a((I93
g1
tp215
g6
tp216
a((I94
g1
tp217
g47
tp218
a((I95
g1
tp219
g139
tp220
a((I96
g1
tp221
g139
tp222
a((I97
g1
tp223
g139
tp224
a((I98
g1
tp225
g139
tp226
a((I99
g1
tp227
g139
tp228
a((I100
g1
tp229
g23
tp230
a((I100
g57
tp231
g83
tp232
a((I101
g1
tp233
g80
tp234
a((I102
g1
tp235
g6
tp236
a((I103
g1
tp237
g88
tp238
a((I104
g1
tp239
g23
tp240
a((I105
g1
tp241
g9
tp242
a((I106
g1
tp243
g23
tp244
a((I107
g1
tp245
g3
tp246
a((I108
g1
tp247
g3
tp248
a((I109
g1
tp249
g6
tp250
a((I110
g1
tp251
g3
tp252
a((I111
g1
tp253
g6
tp254
a((I112
g1
tp255
g20
tp256
a((I113
g1
tp257
g20
tp258
a.