(lp0
((I1
S' '
p1
tp2
S'Q'
p3
tp4
a((I2
g1
tp5
S'V'
p6
tp7
a((I3
g1
tp8
g3
tp9
a((I4
g1
tp10
S'L'
p11
tp12
a((I5
g1
tp13
g11
tp14
a((I6
g1
tp15
g3
tp16
a((I7
g1
tp17
S'P'
p18
tp19
a((I8
g1
tp20
S'G'
p21
tp22
a((I9
g1
tp23
g6
tp24
a((I10
g1
tp25
g3
tp26
a((I11
g1
tp27
g6
tp28
a((I12
g1
tp29
S'K'
p30
tp31
a((I13
g1
tp32
g30
tp33
a((I14
g1
tp34
g18
tp35
a((I15
g1
tp36
g21
tp37
a((I16
g1
tp38
S'S'
p39
tp40
a((I17
g1
tp41
g39
tp42
a((I18
g1
tp43
g6
tp44
a((I19
g1
tp45
g30
tp46
a((I20
g1
tp47
g6
tp48
a((I21
g1
tp49
g39
tp50
a((I22
g1
tp51
S'C'
p52
tp53
a((I23
g1
tp54
S'A'
p55
tp56
a((I24
g1
tp57
g39
tp58
a((I25
g1
tp59
S'R'
p60
tp61
a((I26
g1
tp62
S'Y'
p63
tp64
a((I27
g1
tp65
S'T'
p66
tp67
a((I28
g1
tp68
S'F'
p69
tp70
a((I29
g1
tp71
g66
tp72
a((I30
g1
tp73
g30
tp74
a((I32
g1
tp75
g63
tp76
a((I33
g1
tp77
g69
tp78
a((I34
g1
tp79
g66
tp80
a((I35
g1
tp81
g60
tp82
a((I36
g1
tp83
S'W'
p84
tp85
a((I37
g1
tp86
g6
tp87
a((I38
g1
tp88
S'-'
p89
tp90
a((I39
g1
tp91
g3
tp92
a((I40
g1
tp93
g39
tp94
a((I41
g1
tp95
g18
tp96
a((I42
g1
tp97
g21
tp98
a((I43
g1
tp99
g3
tp100
a((I44
g1
tp101
g21
tp102
a((I45
g1
tp103
g89
tp104
a((I46
g1
tp105
S'H'
p106
tp107
a((I47
g1
tp108
g84
tp109
a((I48
g1
tp110
S'M'
p111
tp112
a((I49
g1
tp113
g21
tp114
a((I50
g1
tp115
S'I'
p116
tp117
a((I51
g1
tp118
S'N'
p119
tp120
a((I52
g1
tp121
g18
tp122
a((I53
g1
tp123
g63
tp124
a((I54
g1
tp125
g119
tp126
a((I55
g1
tp127
S'D'
p128
tp129
a((I56
g1
tp130
g119
tp131
a((I57
g1
tp132
g66
tp133
a((I58
g1
tp134
g106
tp135
a((I59
g1
tp136
g63
tp137
a((I60
g1
tp138
g55
tp139
a((I61
g1
tp140
g3
tp141
a((I62
g1
tp142
g66
tp143
a((I63
g1
tp144
g69
tp145
a((I64
g1
tp146
g84
tp147
a((I65
g1
tp148
g21
tp149
a((I66
g1
tp150
g60
tp151
a((I67
g1
tp152
g6
tp153
a((I68
g1
tp154
g66
tp155
a((I69
g1
tp156
g116
tp157
a((I70
g1
tp158
g66
tp159
a((I71
g1
tp160
g39
tp161
a((I72
g1
tp162
g128
tp163
a((I73
g1
tp164
g60
tp165
a((I74
g1
tp166
g39
tp167
a((I75
g1
tp168
g111
tp169
a((I76
g1
tp170
g39
tp171
a((I77
g1
tp172
g66
tp173
a((I78
g1
tp174
g55
tp175
a((I79
g1
tp176
g63
tp177
a((I80
g1
tp178
g111
tp179
a((I81
g1
tp180
S'E'
p181
tp182
a((I82
g1
tp183
g11
tp184
a((I82
g55
tp185
g39
tp186
a((I82
S'B'
p187
tp188
g11
tp189
a((I83
g1
tp190
g60
tp191
a((I84
g1
tp192
g39
tp193
a((I85
g1
tp194
g181
tp195
a((I86
g1
tp196
g128
tp197
a((I87
g1
tp198
g111
tp199
a((I88
g1
tp200
g6
tp201
a((I89
g1
tp202
g6
tp203
a((I90
g1
tp204
g63
tp205
a((I91
g1
tp206
g63
tp207
a((I92
g1
tp208
g52
tp209
a((I93
g1
tp210
g6
tp211
a((I94
g1
tp212
g60
tp213
a((I95
g1
tp214
g63
tp215
a((I96
g1
tp216
g84
tp217
a((I97
g1
tp218
g63
tp219
a((I98
g1
tp220
g69
tp221
a((I101
g1
tp222
g128
tp223
a((I102
g1
tp224
g11
tp225
a((I103
g1
tp226
g84
tp227
a((I104
g1
tp228
g21
tp229
a((I105
g1
tp230
g60
tp231
a((I106
g1
tp232
g21
tp233
a((I107
g1
tp234
g66
tp235
a((I108
g1
tp236
g11
tp237
a((I109
g1
tp238
g6
tp239
a((I110
g1
tp240
g66
tp241
a((I111
g1
tp242
g6
tp243
a((I112
g1
tp244
g39
tp245
a((I113
g1
tp246
g39
tp247
a.