(lp0
((I1
S' '
p1
tp2
S'E'
p3
tp4
a((I2
g1
tp5
S'V'
p6
tp7
a((I3
g1
tp8
S'Q'
p9
tp10
a((I4
g1
tp11
S'L'
p12
tp13
a((I5
g1
tp14
g6
tp15
a((I6
g1
tp16
g9
tp17
a((I7
g1
tp18
S'S'
p19
tp20
a((I8
g1
tp21
S'G'
p22
tp23
a((I9
g1
tp24
S'A'
p25
tp26
a((I10
g1
tp27
g3
tp28
a((I11
g1
tp29
g6
tp30
a((I12
g1
tp31
S'K'
p32
tp33
a((I13
g1
tp34
g32
tp35
a((I14
g1
tp36
S'P'
p37
tp38
a((I15
g1
tp39
g22
tp40
a((I16
g1
tp41
g3
tp42
a((I17
g1
tp43
g19
tp44
a((I18
g1
tp45
g12
tp46
a((I19
g1
tp47
g32
tp48
a((I20
g1
tp49
S'I'
p50
tp51
a((I21
g1
tp52
g19
tp53
a((I22
g1
tp54
S'C'
p55
tp56
a((I23
g1
tp57
g32
tp58
a((I24
g1
tp59
g22
tp60
a((I25
g1
tp61
g19
tp62
a((I26
g1
tp63
g22
tp64
a((I27
g1
tp65
S'Y'
p66
tp67
a((I28
g1
tp68
g19
tp69
a((I29
g1
tp70
S'F'
p71
tp72
a((I30
g1
tp73
S'T'
p74
tp75
a((I31
g1
tp76
g19
tp77
a((I32
g1
tp78
g66
tp79
a((I33
g1
tp80
S'W'
p81
tp82
a((I34
g1
tp83
g50
tp84
a((I35
g1
tp85
g22
tp86
a((I36
g1
tp87
g81
tp88
a((I37
g1
tp89
g6
tp90
a((I38
g1
tp91
S'R'
p92
tp93
a((I39
g1
tp94
g9
tp95
a((I40
g1
tp96
S'M'
p97
tp98
a((I41
g1
tp99
g37
tp100
a((I42
g1
tp101
g22
tp102
a((I43
g1
tp103
g32
tp104
a((I44
g1
tp105
g22
tp106
a((I45
g1
tp107
g12
tp108
a((I46
g1
tp109
g3
tp110
a((I47
g1
tp111
g81
tp112
a((I48
g1
tp113
g97
tp114
a((I49
g1
tp115
g22
tp116
a((I50
g1
tp117
g50
tp118
a((I51
g1
tp119
g50
tp120
a((I52
g1
tp121
g66
tp122
a((I52
g25
tp123
g37
tp124
a((I53
g1
tp125
g22
tp126
a((I54
g1
tp127
S'D'
p128
tp129
a((I55
g1
tp130
g19
tp131
a((I56
g1
tp132
g128
tp133
a((I57
g1
tp134
g74
tp135
a((I58
g1
tp136
g92
tp137
a((I59
g1
tp138
g66
tp139
a((I60
g1
tp140
g19
tp141
a((I61
g1
tp142
g37
tp143
a((I62
g1
tp144
g19
tp145
a((I63
g1
tp146
g71
tp147
a((I64
g1
tp148
g9
tp149
a((I65
g1
tp150
g22
tp151
a((I66
g1
tp152
g9
tp153
a((I67
g1
tp154
g6
tp155
a((I68
g1
tp156
g74
tp157
a((I69
g1
tp158
g50
tp159
a((I70
g1
tp160
g19
tp161
a((I71
g1
tp162
g25
tp163
a((I72
g1
tp164
g128
tp165
a((I73
g1
tp166
g32
tp167
a((I74
g1
tp168
g19
tp169
a((I75
g1
tp170
g50
tp171
a((I76
g1
tp172
g19
tp173
a((I77
g1
tp174
g74
tp175
a((I78
g1
tp176
g25
tp177
a((I79
g1
tp178
g66
tp179
a((I80
g1
tp180
g12
tp181
a((I81
g1
tp182
g9
tp183
a((I82
g1
tp184
g81
tp185
a((I82
g25
tp186
g19
tp187
a((I82
S'B'
p188
tp189
g19
tp190
a((I82
g55
tp191
g12
tp192
a((I83
g1
tp193
g32
tp194
a((I84
g1
tp195
g25
tp196
a((I85
g1
tp197
g19
tp198
a((I86
g1
tp199
g128
tp200
a((I87
g1
tp201
g74
tp202
a((I88
g1
tp203
g25
tp204
a((I89
g1
tp205
g97
tp206
a((I90
g1
tp207
g66
tp208
a((I91
g1
tp209
g66
tp210
a((I92
g1
tp211
g55
tp212
a((I93
g1
tp213
g25
tp214
a((I94
g1
tp215
g92
tp216
a((I95
g1
tp217
g66
tp218
a((I96
g1
tp219
g66
tp220
a((I97
g1
tp221
g66
tp222
a((I98
g1
tp223
g66
tp224
a((I99
g1
tp225
g66
tp226
a((I100
g1
tp227
g22
tp228
a((I100
g25
tp229
g97
tp230
a((I101
g1
tp231
g128
tp232
a((I102
g1
tp233
g6
tp234
a((I103
g1
tp235
g81
tp236
a((I104
g1
tp237
g22
tp238
a((I105
g1
tp239
g9
tp240
a((I106
g1
tp241
g22
tp242
a((I107
g1
tp243
g74
tp244
a((I108
g1
tp245
g74
tp246
a((I109
g1
tp247
g6
tp248
a((I110
g1
tp249
g74
tp250
a((I111
g1
tp251
g6
tp252
a((I112
g1
tp253
g19
tp254
a((I113
g1
tp255
g19
tp256
a.