(lp0
((I1
S' '
p1
tp2
S'Q'
p3
tp4
a((I2
g1
tp5
S'V'
p6
tp7
a((I3
g1
tp8
g3
tp9
a((I4
g1
tp10
S'L'
p11
tp12
a((I5
g1
tp13
g3
tp14
a((I6
g1
tp15
S'E'
p16
tp17
a((I7
g1
tp18
S'S'
p19
tp20
a((I8
g1
tp21
S'G'
p22
tp23
a((I9
g1
tp24
S'P'
p25
tp26
a((I10
g1
tp27
g22
tp28
a((I11
g1
tp29
g11
tp30
a((I12
g1
tp31
g6
tp32
a((I13
g1
tp33
S'K'
p34
tp35
a((I14
g1
tp36
g25
tp37
a((I15
g1
tp38
g19
tp39
a((I16
g1
tp40
g16
tp41
a((I17
g1
tp42
S'T'
p43
tp44
a((I18
g1
tp45
g11
tp46
a((I19
g1
tp47
g19
tp48
a((I20
g1
tp49
g11
tp50
a((I21
g1
tp51
g43
tp52
a((I22
g1
tp53
S'C'
p54
tp55
a((I23
g1
tp56
g43
tp57
a((I24
g1
tp58
g6
tp59
a((I25
g1
tp60
g19
tp61
a((I26
g1
tp62
g22
tp63
a((I27
g1
tp64
g22
tp65
a((I28
g1
tp66
g19
tp67
a((I29
g1
tp68
g6
tp69
a((I30
g1
tp70
g19
tp71
a((I31
g1
tp72
g19
tp73
a((I31
S'A'
p74
tp75
g22
tp76
a((I31
S'B'
p77
tp78
g19
tp79
a((I32
g1
tp80
S'Y'
p81
tp82
a((I33
g1
tp83
g81
tp84
a((I34
g1
tp85
S'W'
p86
tp87
a((I35
g1
tp88
g19
tp89
a((I36
g1
tp90
g86
tp91
a((I37
g1
tp92
S'I'
p93
tp94
a((I38
g1
tp95
S'R'
p96
tp97
a((I39
g1
tp98
g3
tp99
a((I40
g1
tp100
g25
tp101
a((I41
g1
tp102
g25
tp103
a((I42
g1
tp104
g22
tp105
a((I43
g1
tp106
g34
tp107
a((I44
g1
tp108
g22
tp109
a((I45
g1
tp110
g11
tp111
a((I46
g1
tp112
g16
tp113
a((I47
g1
tp114
g86
tp115
a((I48
g1
tp116
g93
tp117
a((I49
g1
tp118
g22
tp119
a((I50
g1
tp120
g81
tp121
a((I51
g1
tp122
g93
tp123
a((I52
g1
tp124
g81
tp125
a((I53
g1
tp126
g81
tp127
a((I54
g1
tp128
g19
tp129
a((I55
g1
tp130
g22
tp131
a((I56
g1
tp132
g19
tp133
a((I57
g1
tp134
g43
tp135
a((I58
g1
tp136
S'N'
p137
tp138
a((I59
g1
tp139
g81
tp140
a((I60
g1
tp141
g137
tp142
a((I61
g1
tp143
g25
tp144
a((I62
g1
tp145
g19
tp146
a((I63
g1
tp147
g11
tp148
a((I64
g1
tp149
g34
tp150
a((I65
g1
tp151
g19
tp152
a((I66
g1
tp153
g96
tp154
a((I67
g1
tp155
g6
tp156
a((I68
g1
tp157
g43
tp158
a((I69
g1
tp159
g93
tp160
a((I70
g1
tp161
g19
tp162
a((I71
g1
tp163
g6
tp164
a((I72
g1
tp165
S'D'
p166
tp167
a((I73
g1
tp168
g43
tp169
a((I74
g1
tp170
g19
tp171
a((I75
g1
tp172
g34
tp173
a((I76
g1
tp174
g137
tp175
a((I77
g1
tp176
g3
tp177
a((I78
g1
tp178
S'F'
p179
tp180
a((I79
g1
tp181
g19
tp182
a((I80
g1
tp183
g11
tp184
a((I81
g1
tp185
g34
tp186
a((I82
g1
tp187
g11
tp188
a((I82
g74
tp189
g19
tp190
a((I82
g77
tp191
g19
tp192
a((I82
g54
tp193
g6
tp194
a((I83
g1
tp195
g43
tp196
a((I84
g1
tp197
g74
tp198
a((I85
g1
tp199
g74
tp200
a((I86
g1
tp201
g166
tp202
a((I87
g1
tp203
g43
tp204
a((I88
g1
tp205
g74
tp206
a((I89
g1
tp207
g6
tp208
a((I90
g1
tp209
g81
tp210
a((I91
g1
tp211
g81
tp212
a((I92
g1
tp213
g54
tp214
a((I93
g1
tp215
g74
tp216
a((I94
g1
tp217
g96
tp218
a((I95
g1
tp219
g74
tp220
a((I96
g1
tp221
g16
tp222
a((I97
g1
tp223
g81
tp224
a((I98
g1
tp225
g179
tp226
a((I101
g1
tp227
g3
tp228
a((I102
g1
tp229
S'H'
p230
tp231
a((I103
g1
tp232
g86
tp233
a((I104
g1
tp234
g22
tp235
a((I105
g1
tp236
g3
tp237
a((I106
g1
tp238
g22
tp239
a((I107
g1
tp240
g43
tp241
a((I108
g1
tp242
g11
tp243
a((I109
g1
tp244
g6
tp245
a((I110
g1
tp246
g43
tp247
a((I111
g1
tp248
g6
tp249
a((I112
g1
tp250
g19
tp251
a((I113
g1
tp252
g19
tp253
a.