(lp0
((I1
S' '
p1
tp2
S'E'
p3
tp4
a((I2
g1
tp5
S'V'
p6
tp7
a((I3
g1
tp8
S'Q'
p9
tp10
a((I4
g1
tp11
S'L'
p12
tp13
a((I5
g1
tp14
g6
tp15
a((I6
g1
tp16
g3
tp17
a((I7
g1
tp18
S'S'
p19
tp20
a((I8
g1
tp21
S'G'
p22
tp23
a((I9
g1
tp24
g22
tp25
a((I10
g1
tp26
g22
tp27
a((I11
g1
tp28
g12
tp29
a((I12
g1
tp30
g6
tp31
a((I13
g1
tp32
g9
tp33
a((I14
g1
tp34
S'P'
p35
tp36
a((I15
g1
tp37
g22
tp38
a((I16
g1
tp39
g22
tp40
a((I17
g1
tp41
g19
tp42
a((I18
g1
tp43
g12
tp44
a((I19
g1
tp45
S'R'
p46
tp47
a((I20
g1
tp48
g12
tp49
a((I21
g1
tp50
g19
tp51
a((I22
g1
tp52
S'C'
p53
tp54
a((I23
g1
tp55
S'A'
p56
tp57
a((I24
g1
tp58
g56
tp59
a((I25
g1
tp60
g19
tp61
a((I26
g1
tp62
g22
tp63
a((I27
g1
tp64
S'F'
p65
tp66
a((I28
g1
tp67
S'T'
p68
tp69
a((I29
g1
tp70
g65
tp71
a((I30
g1
tp72
g19
tp73
a((I31
g1
tp74
g19
tp75
a((I32
g1
tp76
S'Y'
p77
tp78
a((I33
g1
tp79
S'W'
p80
tp81
a((I34
g1
tp82
S'M'
p83
tp84
a((I35
g1
tp85
S'H'
p86
tp87
a((I36
g1
tp88
g80
tp89
a((I37
g1
tp90
g6
tp91
a((I38
g1
tp92
g46
tp93
a((I39
g1
tp94
g9
tp95
a((I40
g1
tp96
g56
tp97
a((I41
g1
tp98
g35
tp99
a((I42
g1
tp100
g22
tp101
a((I43
g1
tp102
S'K'
p103
tp104
a((I44
g1
tp105
g22
tp106
a((I45
g1
tp107
g12
tp108
a((I46
g1
tp109
g6
tp110
a((I47
g1
tp111
g80
tp112
a((I48
g1
tp113
g6
tp114
a((I49
g1
tp115
g19
tp116
a((I50
g1
tp117
g46
tp118
a((I51
g1
tp119
S'I'
p120
tp121
a((I52
g1
tp122
S'N'
p123
tp124
a((I52
g56
tp125
g19
tp126
a((I53
g1
tp127
S'D'
p128
tp129
a((I54
g1
tp130
g22
tp131
a((I55
g1
tp132
g19
tp133
a((I56
g1
tp134
g19
tp135
a((I57
g1
tp136
g68
tp137
a((I58
g1
tp138
g19
tp139
a((I59
g1
tp140
g77
tp141
a((I60
g1
tp142
g56
tp143
a((I61
g1
tp144
g128
tp145
a((I62
g1
tp146
g19
tp147
a((I63
g1
tp148
g6
tp149
a((I64
g1
tp150
g103
tp151
a((I65
g1
tp152
g22
tp153
a((I66
g1
tp154
g46
tp155
a((I67
g1
tp156
g65
tp157
a((I68
g1
tp158
g68
tp159
a((I69
g1
tp160
g120
tp161
a((I70
g1
tp162
g19
tp163
a((I71
g1
tp164
g46
tp165
a((I72
g1
tp166
g128
tp167
a((I73
g1
tp168
g123
tp169
a((I74
g1
tp170
g56
tp171
a((I75
g1
tp172
g103
tp173
a((I76
g1
tp174
g123
tp175
a((I77
g1
tp176
g68
tp177
a((I78
g1
tp178
g12
tp179
a((I79
g1
tp180
g77
tp181
a((I80
g1
tp182
g12
tp183
a((I81
g1
tp184
g9
tp185
a((I82
g1
tp186
g83
tp187
a((I82
g56
tp188
g123
tp189
a((I82
S'B'
p190
tp191
g19
tp192
a((I82
g53
tp193
g12
tp194
a((I83
g1
tp195
g46
tp196
a((I84
g1
tp197
g56
tp198
a((I85
g1
tp199
g3
tp200
a((I86
g1
tp201
g128
tp202
a((I87
g1
tp203
g68
tp204
a((I88
g1
tp205
g56
tp206
a((I89
g1
tp207
g6
tp208
a((I90
g1
tp209
g77
tp210
a((I91
g1
tp211
g77
tp212
a((I92
g1
tp213
g53
tp214
a((I93
g1
tp215
g56
tp216
a((I94
g1
tp217
g46
tp218
a((I95
g1
tp219
g77
tp220
a((I96
g1
tp221
g80
tp222
a((I97
g1
tp223
g77
tp224
a((I98
g1
tp225
g65
tp226
a((I101
g1
tp227
g128
tp228
a((I102
g1
tp229
g12
tp230
a((I103
g1
tp231
g80
tp232
a((I104
g1
tp233
g22
tp234
a((I105
g1
tp235
g46
tp236
a((I106
g1
tp237
g22
tp238
a((I107
g1
tp239
g68
tp240
a((I108
g1
tp241
g12
tp242
a((I109
g1
tp243
g6
tp244
a((I110
g1
tp245
g68
tp246
a((I111
g1
tp247
g6
tp248
a((I112
g1
tp249
g19
tp250
a((I113
g1
tp251
g19
tp252
a.