(lp0
((I1
S' '
p1
tp2
S'Q'
p3
tp4
a((I2
g1
tp5
S'V'
p6
tp7
a((I3
g1
tp8
g3
tp9
a((I4
g1
tp10
S'L'
p11
tp12
a((I5
g1
tp13
g6
tp14
a((I6
g1
tp15
g3
tp16
a((I7
g1
tp17
S'S'
p18
tp19
a((I8
g1
tp20
S'G'
p21
tp22
a((I9
g1
tp23
S'A'
p24
tp25
a((I10
g1
tp26
S'E'
p27
tp28
a((I11
g1
tp29
g6
tp30
a((I12
g1
tp31
S'K'
p32
tp33
a((I13
g1
tp34
g32
tp35
a((I14
g1
tp36
S'P'
p37
tp38
a((I15
g1
tp39
g21
tp40
a((I16
g1
tp41
g24
tp42
a((I17
g1
tp43
g18
tp44
a((I18
g1
tp45
g6
tp46
a((I19
g1
tp47
g32
tp48
a((I20
g1
tp49
g6
tp50
a((I21
g1
tp51
g18
tp52
a((I22
g1
tp53
S'C'
p54
tp55
a((I23
g1
tp56
g32
tp57
a((I24
g1
tp58
g24
tp59
a((I25
g1
tp60
g18
tp61
a((I26
g1
tp62
g21
tp63
a((I27
g1
tp64
S'Y'
p65
tp66
a((I28
g1
tp67
S'T'
p68
tp69
a((I29
g1
tp70
S'F'
p71
tp72
a((I30
g1
tp73
g68
tp74
a((I31
g1
tp75
g21
tp76
a((I32
g1
tp77
g65
tp78
a((I33
g1
tp79
g65
tp80
a((I34
g1
tp81
S'M'
p82
tp83
a((I35
g1
tp84
S'H'
p85
tp86
a((I36
g1
tp87
S'W'
p88
tp89
a((I37
g1
tp90
g6
tp91
a((I38
g1
tp92
S'R'
p93
tp94
a((I39
g1
tp95
g3
tp96
a((I40
g1
tp97
g24
tp98
a((I41
g1
tp99
g37
tp100
a((I42
g1
tp101
g21
tp102
a((I43
g1
tp103
g3
tp104
a((I44
g1
tp105
g21
tp106
a((I45
g1
tp107
g11
tp108
a((I46
g1
tp109
g27
tp110
a((I47
g1
tp111
g88
tp112
a((I48
g1
tp113
g82
tp114
a((I49
g1
tp115
g21
tp116
a((I50
g1
tp117
g93
tp118
a((I51
g1
tp119
S'I'
p120
tp121
a((I52
g1
tp122
S'N'
p123
tp124
a((I52
g24
tp125
g37
tp126
a((I53
g1
tp127
g123
tp128
a((I54
g1
tp129
g18
tp130
a((I55
g1
tp131
g21
tp132
a((I56
g1
tp133
g21
tp134
a((I57
g1
tp135
g68
tp136
a((I58
g1
tp137
g123
tp138
a((I59
g1
tp139
g65
tp140
a((I60
g1
tp141
g24
tp142
a((I61
g1
tp143
g3
tp144
a((I62
g1
tp145
g32
tp146
a((I63
g1
tp147
g71
tp148
a((I64
g1
tp149
g3
tp150
a((I65
g1
tp151
g21
tp152
a((I66
g1
tp153
g93
tp154
a((I67
g1
tp155
g6
tp156
a((I68
g1
tp157
g68
tp158
a((I69
g1
tp159
g18
tp160
a((I70
g1
tp161
g68
tp162
a((I71
g1
tp163
g93
tp164
a((I72
g1
tp165
S'D'
p166
tp167
a((I73
g1
tp168
g68
tp169
a((I74
g1
tp170
g18
tp171
a((I75
g1
tp172
g120
tp173
a((I76
g1
tp174
g18
tp175
a((I77
g1
tp176
g68
tp177
a((I78
g1
tp178
g24
tp179
a((I79
g1
tp180
g65
tp181
a((I80
g1
tp182
g82
tp183
a((I81
g1
tp184
g27
tp185
a((I82
g1
tp186
g11
tp187
a((I82
g24
tp188
g18
tp189
a((I82
S'B'
p190
tp191
g93
tp192
a((I82
g54
tp193
g11
tp194
a((I83
g1
tp195
g93
tp196
a((I84
g1
tp197
g18
tp198
a((I85
g1
tp199
g166
tp200
a((I86
g1
tp201
g166
tp202
a((I87
g1
tp203
g68
tp204
a((I88
g1
tp205
g6
tp206
a((I89
g1
tp207
g6
tp208
a((I90
g1
tp209
g65
tp210
a((I91
g1
tp211
g65
tp212
a((I92
g1
tp213
g54
tp214
a((I93
g1
tp215
g24
tp216
a((I94
g1
tp217
g93
tp218
a((I95
g1
tp219
g24
tp220
a((I96
g1
tp221
g27
tp222
a((I97
g1
tp223
g65
tp224
a((I98
g1
tp225
g71
tp226
a((I101
g1
tp227
g3
tp228
a((I102
g1
tp229
g85
tp230
a((I103
g1
tp231
g88
tp232
a((I104
g1
tp233
g21
tp234
a((I105
g1
tp235
g3
tp236
a((I106
g1
tp237
g21
tp238
a((I107
g1
tp239
g68
tp240
a((I108
g1
tp241
g11
tp242
a((I109
g1
tp243
g6
tp244
a((I110
g1
tp245
g68
tp246
a((I111
g1
tp247
g6
tp248
a((I112
g1
tp249
g18
tp250
a((I113
g1
tp251
g18
tp252
a.