(lp0
((I1
S' '
p1
tp2
S'Q'
p3
tp4
a((I2
g1
tp5
S'V'
p6
tp7
a((I3
g1
tp8
g3
tp9
a((I4
g1
tp10
S'L'
p11
tp12
a((I5
g1
tp13
g3
tp14
a((I6
g1
tp15
g3
tp16
a((I7
g1
tp17
S'S'
p18
tp19
a((I8
g1
tp20
S'G'
p21
tp22
a((I9
g1
tp23
S'P'
p24
tp25
a((I10
g1
tp26
g21
tp27
a((I11
g1
tp28
g11
tp29
a((I12
g1
tp30
g6
tp31
a((I13
g1
tp32
S'K'
p33
tp34
a((I14
g1
tp35
g24
tp36
a((I15
g1
tp37
g18
tp38
a((I16
g1
tp39
g3
tp40
a((I17
g1
tp41
S'T'
p42
tp43
a((I18
g1
tp44
g11
tp45
a((I19
g1
tp46
g18
tp47
a((I20
g1
tp48
g11
tp49
a((I21
g1
tp50
g42
tp51
a((I22
g1
tp52
S'C'
p53
tp54
a((I23
g1
tp55
S'A'
p56
tp57
a((I24
g1
tp58
S'I'
p59
tp60
a((I25
g1
tp61
g18
tp62
a((I26
g1
tp63
g21
tp64
a((I27
g1
tp65
S'D'
p66
tp67
a((I28
g1
tp68
g18
tp69
a((I29
g1
tp70
g6
tp71
a((I30
g1
tp72
g18
tp73
a((I31
g1
tp74
g18
tp75
a((I31
g56
tp76
S'N'
p77
tp78
a((I31
S'B'
p79
tp80
g18
tp81
a((I32
g1
tp82
g56
tp83
a((I33
g1
tp84
g56
tp85
a((I34
g1
tp86
S'W'
p87
tp88
a((I35
g1
tp89
g77
tp90
a((I36
g1
tp91
g87
tp92
a((I37
g1
tp93
g59
tp94
a((I38
g1
tp95
S'R'
p96
tp97
a((I39
g1
tp98
g3
tp99
a((I40
g1
tp100
g18
tp101
a((I41
g1
tp102
g24
tp103
a((I42
g1
tp104
g18
tp105
a((I43
g1
tp106
g96
tp107
a((I44
g1
tp108
g21
tp109
a((I45
g1
tp110
g11
tp111
a((I46
g1
tp112
S'E'
p113
tp114
a((I47
g1
tp115
g87
tp116
a((I48
g1
tp117
g11
tp118
a((I49
g1
tp119
g21
tp120
a((I50
g1
tp121
g96
tp122
a((I51
g1
tp123
g42
tp124
a((I52
g1
tp125
S'Y'
p126
tp127
a((I52
g56
tp128
g126
tp129
a((I52
g79
tp130
g96
tp131
a((I53
g1
tp132
g18
tp133
a((I54
g1
tp134
g33
tp135
a((I55
g1
tp136
g87
tp137
a((I56
g1
tp138
g126
tp139
a((I57
g1
tp140
g77
tp141
a((I58
g1
tp142
g66
tp143
a((I59
g1
tp144
g126
tp145
a((I60
g1
tp146
g56
tp147
a((I61
g1
tp148
g6
tp149
a((I62
g1
tp150
g18
tp151
a((I63
g1
tp152
g6
tp153
a((I64
g1
tp154
g33
tp155
a((I65
g1
tp156
g18
tp157
a((I66
g1
tp158
g96
tp159
a((I67
g1
tp160
g59
tp161
a((I68
g1
tp162
g42
tp163
a((I69
g1
tp164
g59
tp165
a((I70
g1
tp166
g77
tp167
a((I71
g1
tp168
g24
tp169
a((I72
g1
tp170
g66
tp171
a((I73
g1
tp172
g42
tp173
a((I74
g1
tp174
g18
tp175
a((I75
g1
tp176
g33
tp177
a((I76
g1
tp178
g77
tp179
a((I77
g1
tp180
g3
tp181
a((I78
g1
tp182
S'F'
p183
tp184
a((I79
g1
tp185
g18
tp186
a((I80
g1
tp187
g11
tp188
a((I81
g1
tp189
g3
tp190
a((I82
g1
tp191
g11
tp192
a((I82
g56
tp193
g77
tp194
a((I82
g79
tp195
g18
tp196
a((I82
g53
tp197
g6
tp198
a((I83
g1
tp199
g42
tp200
a((I84
g1
tp201
g24
tp202
a((I85
g1
tp203
g113
tp204
a((I86
g1
tp205
g66
tp206
a((I87
g1
tp207
g42
tp208
a((I88
g1
tp209
g56
tp210
a((I89
g1
tp211
g6
tp212
a((I90
g1
tp213
g126
tp214
a((I91
g1
tp215
g126
tp216
a((I92
g1
tp217
g53
tp218
a((I93
g1
tp219
g56
tp220
a((I94
g1
tp221
g96
tp222
a((I95
g1
tp223
g66
tp224
a((I96
g1
tp225
g56
tp226
a((I97
g1
tp227
g183
tp228
a((I101
g1
tp229
g66
tp230
a((I102
g1
tp231
g6
tp232
a((I103
g1
tp233
g87
tp234
a((I104
g1
tp235
g21
tp236
a((I105
g1
tp237
g3
tp238
a((I106
g1
tp239
g21
tp240
a((I107
g1
tp241
g42
tp242
a((I108
g1
tp243
S'M'
p244
tp245
a((I109
g1
tp246
g6
tp247
a((I110
g1
tp248
g42
tp249
a((I111
g1
tp250
g6
tp251
a((I112
g1
tp252
g18
tp253
a((I113
g1
tp254
g18
tp255
a.