(lp0
((I1
S' '
p1
tp2
S'Q'
p3
tp4
a((I2
g1
tp5
S'V'
p6
tp7
a((I3
g1
tp8
S'T'
p9
tp10
a((I4
g1
tp11
S'L'
p12
tp13
a((I5
g1
tp14
S'K'
p15
tp16
a((I6
g1
tp17
S'E'
p18
tp19
a((I7
g1
tp20
S'S'
p21
tp22
a((I8
g1
tp23
S'G'
p24
tp25
a((I9
g1
tp26
S'P'
p27
tp28
a((I10
g1
tp29
g6
tp30
a((I11
g1
tp31
g12
tp32
a((I12
g1
tp33
g6
tp34
a((I13
g1
tp35
g15
tp36
a((I14
g1
tp37
g27
tp38
a((I15
g1
tp39
g9
tp40
a((I16
g1
tp41
g18
tp42
a((I17
g1
tp43
g9
tp44
a((I18
g1
tp45
g12
tp46
a((I19
g1
tp47
g9
tp48
a((I20
g1
tp49
g12
tp50
a((I21
g1
tp51
g9
tp52
a((I22
g1
tp53
S'C'
p54
tp55
a((I23
g1
tp56
g9
tp57
a((I24
g1
tp58
g6
tp59
a((I25
g1
tp60
g21
tp61
a((I26
g1
tp62
g24
tp63
a((I27
g1
tp64
S'F'
p65
tp66
a((I28
g1
tp67
g21
tp68
a((I29
g1
tp69
g12
tp70
a((I30
g1
tp71
g21
tp72
a((I31
g1
tp73
S'N'
p74
tp75
a((I31
S'A'
p76
tp77
g76
tp78
a((I31
S'B'
p79
tp80
S'R'
p81
tp82
a((I32
g1
tp83
S'M'
p84
tp85
a((I33
g1
tp86
g24
tp87
a((I34
g1
tp88
g6
tp89
a((I35
g1
tp90
g21
tp91
a((I36
g1
tp92
S'W'
p93
tp94
a((I37
g1
tp95
S'I'
p96
tp97
a((I38
g1
tp98
g81
tp99
a((I39
g1
tp100
g3
tp101
a((I40
g1
tp102
g27
tp103
a((I41
g1
tp104
g27
tp105
a((I42
g1
tp106
g24
tp107
a((I43
g1
tp108
g15
tp109
a((I44
g1
tp110
g76
tp111
a((I45
g1
tp112
g12
tp113
a((I46
g1
tp114
g18
tp115
a((I47
g1
tp116
g93
tp117
a((I48
g1
tp118
g12
tp119
a((I49
g1
tp120
g76
tp121
a((I50
g1
tp122
S'H'
p123
tp124
a((I51
g1
tp125
g96
tp126
a((I52
g1
tp127
g65
tp128
a((I53
g1
tp129
g21
tp130
a((I54
g1
tp131
g74
tp132
a((I55
g1
tp133
S'D'
p134
tp135
a((I56
g1
tp136
g18
tp137
a((I57
g1
tp138
g15
tp139
a((I58
g1
tp140
g21
tp141
a((I59
g1
tp142
S'Y'
p143
tp144
a((I60
g1
tp145
g21
tp146
a((I61
g1
tp147
g9
tp148
a((I62
g1
tp149
g21
tp150
a((I63
g1
tp151
g12
tp152
a((I64
g1
tp153
g15
tp154
a((I65
g1
tp155
g21
tp156
a((I66
g1
tp157
g81
tp158
a((I67
g1
tp159
g12
tp160
a((I68
g1
tp161
g9
tp162
a((I69
g1
tp163
g96
tp164
a((I70
g1
tp165
g21
tp166
a((I71
g1
tp167
g15
tp168
a((I72
g1
tp169
g134
tp170
a((I73
g1
tp171
g9
tp172
a((I74
g1
tp173
g21
tp174
a((I75
g1
tp175
g15
tp176
a((I76
g1
tp177
g21
tp178
a((I77
g1
tp179
g3
tp180
a((I78
g1
tp181
g6
tp182
a((I79
g1
tp183
g6
tp184
a((I80
g1
tp185
g12
tp186
a((I81
g1
tp187
g9
tp188
a((I82
g1
tp189
g84
tp190
a((I82
g76
tp191
g9
tp192
a((I82
g79
tp193
g74
tp194
a((I82
g54
tp195
g84
tp196
a((I83
g1
tp197
g134
tp198
a((I84
g1
tp199
g27
tp200
a((I85
g1
tp201
g6
tp202
a((I86
g1
tp203
g134
tp204
a((I87
g1
tp205
g9
tp206
a((I88
g1
tp207
g76
tp208
a((I89
g1
tp209
g9
tp210
a((I90
g1
tp211
g143
tp212
a((I91
g1
tp213
g143
tp214
a((I92
g1
tp215
g54
tp216
a((I93
g1
tp217
g76
tp218
a((I94
g1
tp219
g81
tp220
a((I95
g1
tp221
g96
tp222
a((I96
g1
tp223
g143
tp224
a((I97
g1
tp225
g143
tp226
a((I98
g1
tp227
g143
tp228
a((I99
g1
tp229
g143
tp230
a((I100
g1
tp231
g143
tp232
a((I100
g76
tp233
g24
tp234
a((I100
g79
tp235
g84
tp236
a((I101
g1
tp237
g134
tp238
a((I102
g1
tp239
g6
tp240
a((I103
g1
tp241
g93
tp242
a((I104
g1
tp243
g24
tp244
a((I105
g1
tp245
g3
tp246
a((I106
g1
tp247
g24
tp248
a((I107
g1
tp249
g9
tp250
a((I108
g1
tp251
g9
tp252
a((I109
g1
tp253
g6
tp254
a((I110
g1
tp255
g9
tp256
a((I111
g1
tp257
g6
tp258
a((I112
g1
tp259
g21
tp260
a((I113
g1
tp261
g21
tp262
a.