(lp0
((I1
S' '
p1
tp2
S'Q'
p3
tp4
a((I2
g1
tp5
S'V'
p6
tp7
a((I3
g1
tp8
g3
tp9
a((I4
g1
tp10
S'L'
p11
tp12
a((I5
g1
tp13
g3
tp14
a((I6
g1
tp15
S'E'
p16
tp17
a((I7
g1
tp18
S'S'
p19
tp20
a((I8
g1
tp21
S'G'
p22
tp23
a((I9
g1
tp24
S'P'
p25
tp26
a((I10
g1
tp27
g22
tp28
a((I11
g1
tp29
g11
tp30
a((I12
g1
tp31
g6
tp32
a((I13
g1
tp33
S'K'
p34
tp35
a((I14
g1
tp36
g25
tp37
a((I15
g1
tp38
g19
tp39
a((I16
g1
tp40
g16
tp41
a((I17
g1
tp42
S'T'
p43
tp44
a((I18
g1
tp45
g11
tp46
a((I19
g1
tp47
g19
tp48
a((I20
g1
tp49
g11
tp50
a((I21
g1
tp51
g43
tp52
a((I22
g1
tp53
S'C'
p54
tp55
a((I23
g1
tp56
S'A'
p57
tp58
a((I24
g1
tp59
g6
tp60
a((I25
g1
tp61
g19
tp62
a((I26
g1
tp63
g22
tp64
a((I27
g1
tp65
S'Y'
p66
tp67
a((I28
g1
tp68
g19
tp69
a((I29
g1
tp70
S'I'
p71
tp72
a((I30
g1
tp73
g19
tp74
a((I31
g1
tp75
g19
tp76
a((I31
g57
tp77
g22
tp78
a((I32
g1
tp79
g66
tp80
a((I33
g1
tp81
g66
tp82
a((I34
g1
tp83
S'W'
p84
tp85
a((I35
g1
tp86
g22
tp87
a((I36
g1
tp88
g84
tp89
a((I37
g1
tp90
g71
tp91
a((I38
g1
tp92
S'R'
p93
tp94
a((I39
g1
tp95
g3
tp96
a((I40
g1
tp97
g25
tp98
a((I41
g1
tp99
g25
tp100
a((I42
g1
tp101
g22
tp102
a((I43
g1
tp103
g34
tp104
a((I44
g1
tp105
g22
tp106
a((I45
g1
tp107
g11
tp108
a((I46
g1
tp109
g16
tp110
a((I47
g1
tp111
g84
tp112
a((I48
g1
tp113
g71
tp114
a((I49
g1
tp115
g22
tp116
a((I50
g1
tp117
g19
tp118
a((I51
g1
tp119
g71
tp120
a((I52
g1
tp121
g66
tp122
a((I53
g1
tp123
S'H'
p124
tp125
a((I54
g1
tp126
g19
tp127
a((I55
g1
tp128
g22
tp129
a((I56
g1
tp130
g19
tp131
a((I57
g1
tp132
g43
tp133
a((I58
g1
tp134
g66
tp135
a((I59
g1
tp136
g66
tp137
a((I60
g1
tp138
S'N'
p139
tp140
a((I61
g1
tp141
g25
tp142
a((I62
g1
tp143
g19
tp144
a((I63
g1
tp145
g11
tp146
a((I64
g1
tp147
g34
tp148
a((I65
g1
tp149
g19
tp150
a((I66
g1
tp151
g93
tp152
a((I67
g1
tp153
g6
tp154
a((I68
g1
tp155
g43
tp156
a((I69
g1
tp157
g71
tp158
a((I70
g1
tp159
g19
tp160
a((I71
g1
tp161
g6
tp162
a((I72
g1
tp163
S'D'
p164
tp165
a((I73
g1
tp166
g43
tp167
a((I74
g1
tp168
g19
tp169
a((I75
g1
tp170
g34
tp171
a((I76
g1
tp172
g139
tp173
a((I77
g1
tp174
g3
tp175
a((I78
g1
tp176
S'F'
p177
tp178
a((I79
g1
tp179
g19
tp180
a((I80
g1
tp181
g11
tp182
a((I81
g1
tp183
g34
tp184
a((I82
g1
tp185
g11
tp186
a((I82
g57
tp187
g19
tp188
a((I82
S'B'
p189
tp190
g19
tp191
a((I82
g54
tp192
g6
tp193
a((I83
g1
tp194
g43
tp195
a((I84
g1
tp196
g57
tp197
a((I85
g1
tp198
g57
tp199
a((I86
g1
tp200
g164
tp201
a((I87
g1
tp202
g43
tp203
a((I88
g1
tp204
g57
tp205
a((I89
g1
tp206
g6
tp207
a((I90
g1
tp208
g66
tp209
a((I91
g1
tp210
g66
tp211
a((I92
g1
tp212
g54
tp213
a((I93
g1
tp214
g57
tp215
a((I94
g1
tp216
g93
tp217
a((I95
g1
tp218
g66
tp219
a((I96
g1
tp220
g66
tp221
a((I97
g1
tp222
g66
tp223
a((I98
g1
tp224
g66
tp225
a((I99
g1
tp226
g66
tp227
a((I100
g1
tp228
g22
tp229
a((I100
g57
tp230
S'M'
p231
tp232
a((I101
g1
tp233
g164
tp234
a((I102
g1
tp235
g6
tp236
a((I103
g1
tp237
g84
tp238
a((I104
g1
tp239
g22
tp240
a((I105
g1
tp241
g3
tp242
a((I106
g1
tp243
g22
tp244
a((I107
g1
tp245
g43
tp246
a((I108
g1
tp247
g43
tp248
a((I109
g1
tp249
g6
tp250
a((I110
g1
tp251
g43
tp252
a((I111
g1
tp253
g6
tp254
a((I112
g1
tp255
g19
tp256
a((I113
g1
tp257
g19
tp258
a.