(lp0
((I1
S' '
p1
tp2
S'E'
p3
tp4
a((I2
g1
tp5
S'V'
p6
tp7
a((I3
g1
tp8
g3
tp9
a((I4
g1
tp10
S'L'
p11
tp12
a((I5
g1
tp13
S'I'
p14
tp15
a((I6
g1
tp16
g3
tp17
a((I7
g1
tp18
S'S'
p19
tp20
a((I8
g1
tp21
g14
tp22
a((I9
g1
tp23
g3
tp24
a((I10
g1
tp25
S'D'
p26
tp27
a((I11
g1
tp28
g11
tp29
a((I12
g1
tp30
S'R'
p31
tp32
a((I13
g1
tp33
S'Q'
p34
tp35
a((I14
g1
tp36
S'P'
p37
tp38
a((I15
g1
tp39
S'G'
p40
tp41
a((I16
g1
tp42
S'K'
p43
tp44
a((I17
g1
tp45
S'F'
p46
tp47
a((I18
g1
tp48
g11
tp49
a((I19
g1
tp50
g31
tp51
a((I20
g1
tp52
g11
tp53
a((I21
g1
tp54
g19
tp55
a((I22
g1
tp56
S'C'
p57
tp58
a((I23
g1
tp59
g6
tp60
a((I24
g1
tp61
S'A'
p62
tp63
a((I25
g1
tp64
g19
tp65
a((I26
g1
tp66
g31
tp67
a((I27
g1
tp68
g46
tp69
a((I28
g1
tp70
g62
tp71
a((I29
g1
tp72
g46
tp73
a((I30
g1
tp74
g19
tp75
a((I32
g1
tp76
g19
tp77
a((I33
g1
tp78
g46
tp79
a((I34
g1
tp80
S'M'
p81
tp82
a((I35
g1
tp83
g19
tp84
a((I36
g1
tp85
g31
tp86
a((I37
g1
tp87
g6
tp88
a((I38
g1
tp89
S'H'
p90
tp91
a((I39
g1
tp92
g34
tp93
a((I40
g1
tp94
g19
tp95
a((I41
g1
tp96
g37
tp97
a((I42
g1
tp98
g40
tp99
a((I43
g1
tp100
g43
tp101
a((I44
g1
tp102
g40
tp103
a((I45
g1
tp104
g11
tp105
a((I46
g1
tp106
g3
tp107
a((I47
g1
tp108
g6
tp109
a((I48
g1
tp110
g14
tp111
a((I49
g1
tp112
g26
tp113
a((I50
g1
tp114
g14
tp115
a((I51
g1
tp116
g43
tp117
a((I52
g1
tp118
g26
tp119
a((I53
g1
tp120
g26
tp121
a((I54
g1
tp122
g40
tp123
a((I55
g1
tp124
g19
tp125
a((I56
g1
tp126
g34
tp127
a((I57
g1
tp128
g14
tp129
a((I58
g1
tp130
g90
tp131
a((I59
g1
tp132
g90
tp133
a((I60
g1
tp134
g62
tp135
a((I61
g1
tp136
g26
tp137
a((I62
g1
tp138
g19
tp139
a((I63
g1
tp140
g6
tp141
a((I64
g1
tp142
g43
tp143
a((I65
g1
tp144
g40
tp145
a((I66
g1
tp146
g31
tp147
a((I67
g1
tp148
g46
tp149
a((I68
g1
tp150
g19
tp151
a((I69
g1
tp152
g14
tp153
a((I70
g1
tp154
g19
tp155
a((I71
g1
tp156
g43
tp157
a((I72
g1
tp158
g26
tp159
a((I73
g1
tp160
S'N'
p161
tp162
a((I74
g1
tp163
g62
tp164
a((I75
g1
tp165
g43
tp166
a((I76
g1
tp167
g161
tp168
a((I77
g1
tp169
g19
tp170
a((I78
g1
tp171
g11
tp172
a((I79
g1
tp173
S'Y'
p174
tp175
a((I80
g1
tp176
g11
tp177
a((I81
g1
tp178
g34
tp179
a((I82
g1
tp180
g81
tp181
a((I82
g62
tp182
g161
tp183
a((I82
S'B'
p184
tp185
S'T'
p186
tp187
a((I82
g57
tp188
g34
tp189
a((I83
g1
tp190
g31
tp191
a((I84
g1
tp192
g62
tp193
a((I85
g1
tp194
g3
tp195
a((I86
g1
tp196
g26
tp197
a((I87
g1
tp198
g6
tp199
a((I88
g1
tp200
g62
tp201
a((I89
g1
tp202
g6
tp203
a((I90
g1
tp204
g174
tp205
a((I91
g1
tp206
g40
tp207
a((I92
g1
tp208
g174
tp209
a((I93
g1
tp210
g186
tp211
a((I94
g1
tp212
g40
tp213
a((I95
g1
tp214
g62
tp215
a((I96
g1
tp216
g3
tp217
a((I97
g1
tp218
g174
tp219
a((I98
g1
tp220
g46
tp221
a((I101
g1
tp222
g34
tp223
a((I102
g1
tp224
g90
tp225
a((I103
g1
tp226
S'W'
p227
tp228
a((I104
g1
tp229
g40
tp230
a((I105
g1
tp231
g34
tp232
a((I106
g1
tp233
g40
tp234
a((I107
g1
tp235
g186
tp236
a((I108
g1
tp237
g11
tp238
a((I109
g1
tp239
g6
tp240
a((I110
g1
tp241
g186
tp242
a((I111
g1
tp243
g6
tp244
a((I112
g1
tp245
g19
tp246
a((I113
g1
tp247
g19
tp248
a.