(lp0
((I1
S' '
p1
tp2
S'Q'
p3
tp4
a((I2
g1
tp5
S'V'
p6
tp7
a((I3
g1
tp8
g3
tp9
a((I4
g1
tp10
S'L'
p11
tp12
a((I5
g1
tp13
g3
tp14
a((I6
g1
tp15
S'E'
p16
tp17
a((I7
g1
tp18
S'S'
p19
tp20
a((I8
g1
tp21
S'G'
p22
tp23
a((I9
g1
tp24
S'P'
p25
tp26
a((I10
g1
tp27
g22
tp28
a((I11
g1
tp29
g11
tp30
a((I12
g1
tp31
g6
tp32
a((I13
g1
tp33
S'K'
p34
tp35
a((I14
g1
tp36
g25
tp37
a((I15
g1
tp38
g19
tp39
a((I16
g1
tp40
g3
tp41
a((I17
g1
tp42
S'T'
p43
tp44
a((I18
g1
tp45
g11
tp46
a((I19
g1
tp47
g19
tp48
a((I20
g1
tp49
g11
tp50
a((I21
g1
tp51
g43
tp52
a((I22
g1
tp53
S'C'
p54
tp55
a((I23
g1
tp56
g43
tp57
a((I24
g1
tp58
g6
tp59
a((I25
g1
tp60
g19
tp61
a((I26
g1
tp62
g22
tp63
a((I27
g1
tp64
g22
tp65
a((I28
g1
tp66
g19
tp67
a((I29
g1
tp68
S'I'
p69
tp70
a((I30
g1
tp71
g19
tp72
a((I31
g1
tp73
g19
tp74
a((I31
S'A'
p75
tp76
g22
tp77
a((I31
S'B'
p78
tp79
S'D'
p80
tp81
a((I32
g1
tp82
S'Y'
p83
tp84
a((I33
g1
tp85
g83
tp86
a((I34
g1
tp87
S'W'
p88
tp89
a((I35
g1
tp90
g19
tp91
a((I36
g1
tp92
g88
tp93
a((I37
g1
tp94
g69
tp95
a((I38
g1
tp96
S'R'
p97
tp98
a((I39
g1
tp99
g3
tp100
a((I40
g1
tp101
g25
tp102
a((I41
g1
tp103
g25
tp104
a((I42
g1
tp105
g22
tp106
a((I43
g1
tp107
g34
tp108
a((I44
g1
tp109
g22
tp110
a((I45
g1
tp111
g11
tp112
a((I46
g1
tp113
g16
tp114
a((I47
g1
tp115
g88
tp116
a((I48
g1
tp117
g69
tp118
a((I49
g1
tp119
g22
tp120
a((I50
g1
tp121
g83
tp122
a((I51
g1
tp123
g69
tp124
a((I52
g1
tp125
g83
tp126
a((I53
g1
tp127
g83
tp128
a((I54
g1
tp129
g19
tp130
a((I55
g1
tp131
g22
tp132
a((I56
g1
tp133
g19
tp134
a((I57
g1
tp135
g43
tp136
a((I58
g1
tp137
g83
tp138
a((I59
g1
tp139
g83
tp140
a((I60
g1
tp141
S'N'
p142
tp143
a((I61
g1
tp144
g25
tp145
a((I62
g1
tp146
g19
tp147
a((I63
g1
tp148
g11
tp149
a((I64
g1
tp150
g34
tp151
a((I65
g1
tp152
g19
tp153
a((I66
g1
tp154
g97
tp155
a((I67
g1
tp156
g6
tp157
a((I68
g1
tp158
g43
tp159
a((I69
g1
tp160
g69
tp161
a((I70
g1
tp162
g19
tp163
a((I71
g1
tp164
g6
tp165
a((I72
g1
tp166
g80
tp167
a((I73
g1
tp168
g43
tp169
a((I74
g1
tp170
g19
tp171
a((I75
g1
tp172
g34
tp173
a((I76
g1
tp174
g142
tp175
a((I77
g1
tp176
g3
tp177
a((I78
g1
tp178
S'F'
p179
tp180
a((I79
g1
tp181
g19
tp182
a((I80
g1
tp183
g11
tp184
a((I81
g1
tp185
g34
tp186
a((I82
g1
tp187
g11
tp188
a((I82
g75
tp189
g19
tp190
a((I82
g78
tp191
g19
tp192
a((I82
g54
tp193
g6
tp194
a((I83
g1
tp195
g43
tp196
a((I84
g1
tp197
g75
tp198
a((I85
g1
tp199
g75
tp200
a((I86
g1
tp201
g80
tp202
a((I87
g1
tp203
g43
tp204
a((I88
g1
tp205
g75
tp206
a((I89
g1
tp207
g6
tp208
a((I90
g1
tp209
g83
tp210
a((I91
g1
tp211
g83
tp212
a((I92
g1
tp213
g54
tp214
a((I93
g1
tp215
g75
tp216
a((I94
g1
tp217
g97
tp218
a((I95
g1
tp219
g83
tp220
a((I96
g1
tp221
g88
tp222
a((I97
g1
tp223
g83
tp224
a((I98
g1
tp225
g179
tp226
a((I101
g1
tp227
g80
tp228
a((I102
g1
tp229
g11
tp230
a((I103
g1
tp231
g88
tp232
a((I104
g1
tp233
g22
tp234
a((I105
g1
tp235
g97
tp236
a((I106
g1
tp237
g22
tp238
a((I107
g1
tp239
g43
tp240
a((I108
g1
tp241
g11
tp242
a((I109
g1
tp243
g6
tp244
a((I110
g1
tp245
g43
tp246
a((I111
g1
tp247
g6
tp248
a((I112
g1
tp249
g19
tp250
a((I113
g1
tp251
g19
tp252
a.