(lp0
((I1
S' '
p1
tp2
S'E'
p3
tp4
a((I2
g1
tp5
S'V'
p6
tp7
a((I3
g1
tp8
S'Q'
p9
tp10
a((I4
g1
tp11
S'L'
p12
tp13
a((I5
g1
tp14
g6
tp15
a((I6
g1
tp16
g3
tp17
a((I7
g1
tp18
S'S'
p19
tp20
a((I8
g1
tp21
S'G'
p22
tp23
a((I9
g1
tp24
g22
tp25
a((I10
g1
tp26
g22
tp27
a((I11
g1
tp28
g6
tp29
a((I12
g1
tp30
g6
tp31
a((I13
g1
tp32
S'R'
p33
tp34
a((I14
g1
tp35
S'P'
p36
tp37
a((I15
g1
tp38
g22
tp39
a((I16
g1
tp40
g22
tp41
a((I17
g1
tp42
g19
tp43
a((I18
g1
tp44
g12
tp45
a((I19
g1
tp46
g33
tp47
a((I20
g1
tp48
g12
tp49
a((I21
g1
tp50
g19
tp51
a((I22
g1
tp52
S'C'
p53
tp54
a((I23
g1
tp55
S'A'
p56
tp57
a((I24
g1
tp58
g56
tp59
a((I25
g1
tp60
g19
tp61
a((I26
g1
tp62
g22
tp63
a((I27
g1
tp64
S'F'
p65
tp66
a((I28
g1
tp67
S'T'
p68
tp69
a((I29
g1
tp70
g65
tp71
a((I30
g1
tp72
S'D'
p73
tp74
a((I31
g1
tp75
g73
tp76
a((I32
g1
tp77
S'Y'
p78
tp79
a((I33
g1
tp80
g22
tp81
a((I34
g1
tp82
S'M'
p83
tp84
a((I35
g1
tp85
g19
tp86
a((I36
g1
tp87
S'W'
p88
tp89
a((I37
g1
tp90
g6
tp91
a((I38
g1
tp92
g33
tp93
a((I39
g1
tp94
g9
tp95
a((I40
g1
tp96
g56
tp97
a((I41
g1
tp98
g36
tp99
a((I42
g1
tp100
g22
tp101
a((I43
g1
tp102
S'K'
p103
tp104
a((I44
g1
tp105
g22
tp106
a((I45
g1
tp107
g12
tp108
a((I46
g1
tp109
g3
tp110
a((I47
g1
tp111
g88
tp112
a((I48
g1
tp113
g6
tp114
a((I49
g1
tp115
g19
tp116
a((I50
g1
tp117
g22
tp118
a((I51
g1
tp119
S'I'
p120
tp121
a((I52
g1
tp122
S'N'
p123
tp124
a((I52
g56
tp125
g88
tp126
a((I53
g1
tp127
g123
tp128
a((I54
g1
tp129
g22
tp130
a((I55
g1
tp131
g22
tp132
a((I56
g1
tp133
g19
tp134
a((I57
g1
tp135
g68
tp136
a((I58
g1
tp137
g22
tp138
a((I59
g1
tp139
g78
tp140
a((I60
g1
tp141
g56
tp142
a((I61
g1
tp143
g73
tp144
a((I62
g1
tp145
g19
tp146
a((I63
g1
tp147
g6
tp148
a((I64
g1
tp149
g103
tp150
a((I65
g1
tp151
g22
tp152
a((I66
g1
tp153
g33
tp154
a((I67
g1
tp155
g65
tp156
a((I68
g1
tp157
g68
tp158
a((I69
g1
tp159
g120
tp160
a((I70
g1
tp161
g19
tp162
a((I71
g1
tp163
g33
tp164
a((I72
g1
tp165
g73
tp166
a((I73
g1
tp167
g123
tp168
a((I74
g1
tp169
g56
tp170
a((I75
g1
tp171
g103
tp172
a((I76
g1
tp173
g123
tp174
a((I77
g1
tp175
g19
tp176
a((I78
g1
tp177
g12
tp178
a((I79
g1
tp179
g78
tp180
a((I80
g1
tp181
g12
tp182
a((I81
g1
tp183
g9
tp184
a((I82
g1
tp185
g83
tp186
a((I82
g56
tp187
g123
tp188
a((I82
S'B'
p189
tp190
g19
tp191
a((I82
g53
tp192
g12
tp193
a((I83
g1
tp194
g33
tp195
a((I84
g1
tp196
g56
tp197
a((I85
g1
tp198
g3
tp199
a((I86
g1
tp200
g73
tp201
a((I87
g1
tp202
g68
tp203
a((I88
g1
tp204
g56
tp205
a((I89
g1
tp206
g12
tp207
a((I90
g1
tp208
g78
tp209
a((I91
g1
tp210
S'H'
p211
tp212
a((I92
g1
tp213
g53
tp214
a((I93
g1
tp215
g56
tp216
a((I94
g1
tp217
g33
tp218
a((I95
g1
tp219
g78
tp220
a((I96
g1
tp221
g78
tp222
a((I97
g1
tp223
g78
tp224
a((I98
g1
tp225
g78
tp226
a((I99
g1
tp227
g78
tp228
a((I100
g1
tp229
g22
tp230
a((I100
g56
tp231
g83
tp232
a((I101
g1
tp233
g73
tp234
a((I102
g1
tp235
g6
tp236
a((I103
g1
tp237
g88
tp238
a((I104
g1
tp239
g22
tp240
a((I105
g1
tp241
g9
tp242
a((I106
g1
tp243
g22
tp244
a((I107
g1
tp245
g68
tp246
a((I108
g1
tp247
g68
tp248
a((I109
g1
tp249
g6
tp250
a((I110
g1
tp251
g68
tp252
a((I111
g1
tp253
g6
tp254
a((I112
g1
tp255
g19
tp256
a((I113
g1
tp257
g19
tp258
a.