(lp0
((I1
S' '
p1
tp2
S'E'
p3
tp4
a((I2
g1
tp5
S'V'
p6
tp7
a((I3
g1
tp8
S'Q'
p9
tp10
a((I4
g1
tp11
S'L'
p12
tp13
a((I5
g1
tp14
g6
tp15
a((I6
g1
tp16
g9
tp17
a((I7
g1
tp18
S'S'
p19
tp20
a((I8
g1
tp21
S'G'
p22
tp23
a((I9
g1
tp24
S'A'
p25
tp26
a((I10
g1
tp27
g3
tp28
a((I11
g1
tp29
g6
tp30
a((I12
g1
tp31
S'K'
p32
tp33
a((I13
g1
tp34
g32
tp35
a((I14
g1
tp36
S'P'
p37
tp38
a((I15
g1
tp39
g22
tp40
a((I16
g1
tp41
g25
tp42
a((I17
g1
tp43
S'T'
p44
tp45
a((I18
g1
tp46
g6
tp47
a((I19
g1
tp48
g32
tp49
a((I20
g1
tp50
S'I'
p51
tp52
a((I21
g1
tp53
g19
tp54
a((I22
g1
tp55
S'C'
p56
tp57
a((I23
g1
tp58
g32
tp59
a((I24
g1
tp60
g6
tp61
a((I25
g1
tp62
g19
tp63
a((I26
g1
tp64
g22
tp65
a((I27
g1
tp66
S'Y'
p67
tp68
a((I28
g1
tp69
g44
tp70
a((I29
g1
tp71
S'F'
p72
tp73
a((I30
g1
tp74
g44
tp75
a((I31
g1
tp76
S'D'
p77
tp78
a((I32
g1
tp79
g67
tp80
a((I33
g1
tp81
g67
tp82
a((I34
g1
tp83
S'M'
p84
tp85
a((I35
g1
tp86
S'H'
p87
tp88
a((I36
g1
tp89
S'W'
p90
tp91
a((I37
g1
tp92
g6
tp93
a((I38
g1
tp94
g9
tp95
a((I39
g1
tp96
g9
tp97
a((I40
g1
tp98
g25
tp99
a((I41
g1
tp100
g37
tp101
a((I42
g1
tp102
g22
tp103
a((I43
g1
tp104
g32
tp105
a((I44
g1
tp106
g22
tp107
a((I45
g1
tp108
g12
tp109
a((I46
g1
tp110
g3
tp111
a((I47
g1
tp112
g90
tp113
a((I48
g1
tp114
g84
tp115
a((I49
g1
tp116
g22
tp117
a((I50
g1
tp118
g12
tp119
a((I51
g1
tp120
g6
tp121
a((I52
g1
tp122
g77
tp123
a((I52
g25
tp124
g37
tp125
a((I53
g1
tp126
g3
tp127
a((I54
g1
tp128
g77
tp129
a((I55
g1
tp130
g22
tp131
a((I56
g1
tp132
g3
tp133
a((I57
g1
tp134
g44
tp135
a((I58
g1
tp136
g51
tp137
a((I59
g1
tp138
g67
tp139
a((I60
g1
tp140
g25
tp141
a((I61
g1
tp142
g3
tp143
a((I62
g1
tp144
g32
tp145
a((I63
g1
tp146
g72
tp147
a((I64
g1
tp148
g9
tp149
a((I65
g1
tp150
g22
tp151
a((I66
g1
tp152
S'R'
p153
tp154
a((I67
g1
tp155
g6
tp156
a((I68
g1
tp157
g44
tp158
a((I69
g1
tp159
g51
tp160
a((I70
g1
tp161
g44
tp162
a((I71
g1
tp163
g25
tp164
a((I72
g1
tp165
g77
tp166
a((I73
g1
tp167
g44
tp168
a((I74
g1
tp169
g19
tp170
a((I75
g1
tp171
g44
tp172
a((I76
g1
tp173
g77
tp174
a((I77
g1
tp175
g44
tp176
a((I78
g1
tp177
g25
tp178
a((I79
g1
tp179
g67
tp180
a((I80
g1
tp181
g84
tp182
a((I81
g1
tp183
g3
tp184
a((I82
g1
tp185
g12
tp186
a((I82
g25
tp187
g19
tp188
a((I82
S'B'
p189
tp190
g19
tp191
a((I82
g56
tp192
g12
tp193
a((I83
g1
tp194
g153
tp195
a((I84
g1
tp196
g19
tp197
a((I85
g1
tp198
g3
tp199
a((I86
g1
tp200
g77
tp201
a((I87
g1
tp202
g44
tp203
a((I88
g1
tp204
g25
tp205
a((I89
g1
tp206
g6
tp207
a((I90
g1
tp208
g67
tp209
a((I91
g1
tp210
g67
tp211
a((I92
g1
tp212
g56
tp213
a((I93
g1
tp214
g25
tp215
a((I94
g1
tp216
g44
tp217
a((I95
g1
tp218
g67
tp219
a((I96
g1
tp220
g90
tp221
a((I97
g1
tp222
g67
tp223
a((I98
g1
tp224
g72
tp225
a((I101
g1
tp226
g77
tp227
a((I102
g1
tp228
g12
tp229
a((I103
g1
tp230
g90
tp231
a((I104
g1
tp232
g22
tp233
a((I105
g1
tp234
g153
tp235
a((I106
g1
tp236
g22
tp237
a((I107
g1
tp238
g44
tp239
a((I108
g1
tp240
g12
tp241
a((I109
g1
tp242
g6
tp243
a((I110
g1
tp244
g44
tp245
a((I111
g1
tp246
g6
tp247
a((I112
g1
tp248
g19
tp249
a((I113
g1
tp250
g19
tp251
a.