(lp0
((I1
S' '
p1
tp2
S'Q'
p3
tp4
a((I2
g1
tp5
S'L'
p6
tp7
a((I3
g1
tp8
g3
tp9
a((I4
g1
tp10
g6
tp11
a((I5
g1
tp12
g3
tp13
a((I6
g1
tp14
S'E'
p15
tp16
a((I7
g1
tp17
S'S'
p18
tp19
a((I8
g1
tp20
S'G'
p21
tp22
a((I9
g1
tp23
S'P'
p24
tp25
a((I10
g1
tp26
g21
tp27
a((I11
g1
tp28
g6
tp29
a((I12
g1
tp30
S'V'
p31
tp32
a((I13
g1
tp33
S'K'
p34
tp35
a((I14
g1
tp36
g24
tp37
a((I15
g1
tp38
g18
tp39
a((I16
g1
tp40
g15
tp41
a((I17
g1
tp42
S'T'
p43
tp44
a((I18
g1
tp45
g6
tp46
a((I19
g1
tp47
g18
tp48
a((I20
g1
tp49
g6
tp50
a((I21
g1
tp51
g43
tp52
a((I22
g1
tp53
S'C'
p54
tp55
a((I23
g1
tp56
g43
tp57
a((I24
g1
tp58
g31
tp59
a((I25
g1
tp60
g18
tp61
a((I26
g1
tp62
g21
tp63
a((I27
g1
tp64
g21
tp65
a((I28
g1
tp66
g18
tp67
a((I29
g1
tp68
S'I'
p69
tp70
a((I30
g1
tp71
g18
tp72
a((I31
g1
tp73
g18
tp74
a((I31
S'A'
p75
tp76
g18
tp77
a((I31
S'B'
p78
tp79
g18
tp80
a((I32
g1
tp81
S'Y'
p82
tp83
a((I33
g1
tp84
g82
tp85
a((I34
g1
tp86
S'W'
p87
tp88
a((I35
g1
tp89
g21
tp90
a((I36
g1
tp91
g87
tp92
a((I37
g1
tp93
g69
tp94
a((I38
g1
tp95
S'R'
p96
tp97
a((I39
g1
tp98
g3
tp99
a((I40
g1
tp100
g24
tp101
a((I41
g1
tp102
g24
tp103
a((I42
g1
tp104
g21
tp105
a((I43
g1
tp106
g34
tp107
a((I44
g1
tp108
g21
tp109
a((I45
g1
tp110
g6
tp111
a((I46
g1
tp112
g15
tp113
a((I47
g1
tp114
g87
tp115
a((I48
g1
tp116
g69
tp117
a((I49
g1
tp118
g21
tp119
a((I50
g1
tp120
g18
tp121
a((I51
g1
tp122
g69
tp123
a((I52
g1
tp124
g82
tp125
a((I53
g1
tp126
g82
tp127
a((I54
g1
tp128
g18
tp129
a((I55
g1
tp130
g21
tp131
a((I56
g1
tp132
g18
tp133
a((I57
g1
tp134
g43
tp135
a((I58
g1
tp136
g82
tp137
a((I59
g1
tp138
g82
tp139
a((I60
g1
tp140
S'N'
p141
tp142
a((I61
g1
tp143
g24
tp144
a((I62
g1
tp145
g18
tp146
a((I63
g1
tp147
g6
tp148
a((I64
g1
tp149
g34
tp150
a((I65
g1
tp151
g18
tp152
a((I66
g1
tp153
g96
tp154
a((I67
g1
tp155
g31
tp156
a((I68
g1
tp157
g43
tp158
a((I69
g1
tp159
g69
tp160
a((I70
g1
tp161
g18
tp162
a((I71
g1
tp163
g31
tp164
a((I72
g1
tp165
S'D'
p166
tp167
a((I73
g1
tp168
g43
tp169
a((I74
g1
tp170
g18
tp171
a((I75
g1
tp172
g34
tp173
a((I76
g1
tp174
g141
tp175
a((I77
g1
tp176
g3
tp177
a((I78
g1
tp178
S'F'
p179
tp180
a((I79
g1
tp181
g18
tp182
a((I80
g1
tp183
g6
tp184
a((I81
g1
tp185
g34
tp186
a((I82
g1
tp187
g6
tp188
a((I82
g75
tp189
g18
tp190
a((I82
g78
tp191
g18
tp192
a((I82
g54
tp193
g31
tp194
a((I83
g1
tp195
g43
tp196
a((I84
g1
tp197
g75
tp198
a((I85
g1
tp199
g75
tp200
a((I86
g1
tp201
g166
tp202
a((I87
g1
tp203
g43
tp204
a((I88
g1
tp205
g75
tp206
a((I89
g1
tp207
g31
tp208
a((I90
g1
tp209
g82
tp210
a((I91
g1
tp211
g82
tp212
a((I92
g1
tp213
g54
tp214
a((I93
g1
tp215
g75
tp216
a((I94
g1
tp217
g96
tp218
a((I95
g1
tp219
g166
tp220
a((I96
g1
tp221
g75
tp222
a((I97
g1
tp223
g179
tp224
a((I101
g1
tp225
g166
tp226
a((I102
g1
tp227
g31
tp228
a((I103
g1
tp229
g87
tp230
a((I104
g1
tp231
g21
tp232
a((I105
g1
tp233
g3
tp234
a((I106
g1
tp235
g21
tp236
a((I107
g1
tp237
g43
tp238
a((I108
g1
tp239
S'M'
p240
tp241
a((I109
g1
tp242
g31
tp243
a((I110
g1
tp244
g43
tp245
a((I111
g1
tp246
g31
tp247
a((I112
g1
tp248
g18
tp249
a((I113
g1
tp250
g18
tp251
a.