(lp0
((I1
S' '
p1
tp2
S'Q'
p3
tp4
a((I2
g1
tp5
S'M'
p6
tp7
a((I3
g1
tp8
g3
tp9
a((I4
g1
tp10
S'L'
p11
tp12
a((I5
g1
tp13
S'V'
p14
tp15
a((I6
g1
tp16
g3
tp17
a((I7
g1
tp18
S'S'
p19
tp20
a((I8
g1
tp21
S'G'
p22
tp23
a((I9
g1
tp24
S'P'
p25
tp26
a((I10
g1
tp27
S'E'
p28
tp29
a((I11
g1
tp30
g14
tp31
a((I12
g1
tp32
S'K'
p33
tp34
a((I13
g1
tp35
g33
tp36
a((I14
g1
tp37
g25
tp38
a((I15
g1
tp39
g22
tp40
a((I16
g1
tp41
S'T'
p42
tp43
a((I17
g1
tp44
g19
tp45
a((I18
g1
tp46
g14
tp47
a((I19
g1
tp48
g33
tp49
a((I20
g1
tp50
g14
tp51
a((I21
g1
tp52
g19
tp53
a((I22
g1
tp54
S'C'
p55
tp56
a((I23
g1
tp57
g33
tp58
a((I24
g1
tp59
S'A'
p60
tp61
a((I25
g1
tp62
g19
tp63
a((I26
g1
tp64
g22
tp65
a((I27
g1
tp66
S'F'
p67
tp68
a((I28
g1
tp69
g42
tp70
a((I29
g1
tp71
g67
tp72
a((I30
g1
tp73
g42
tp74
a((I31
g1
tp75
g19
tp76
a((I32
g1
tp77
g19
tp78
a((I33
g1
tp79
g60
tp80
a((I34
g1
tp81
g14
tp82
a((I35
g1
tp83
g3
tp84
a((I36
g1
tp85
S'W'
p86
tp87
a((I37
g1
tp88
g14
tp89
a((I38
g1
tp90
S'R'
p91
tp92
a((I39
g1
tp93
g3
tp94
a((I40
g1
tp95
g60
tp96
a((I41
g1
tp97
g91
tp98
a((I42
g1
tp99
g22
tp100
a((I43
g1
tp101
g3
tp102
a((I44
g1
tp103
g91
tp104
a((I45
g1
tp105
g11
tp106
a((I46
g1
tp107
g28
tp108
a((I47
g1
tp109
g86
tp110
a((I48
g1
tp111
S'I'
p112
tp113
a((I49
g1
tp114
g22
tp115
a((I50
g1
tp116
g86
tp117
a((I51
g1
tp118
g112
tp119
a((I52
g1
tp120
g14
tp121
a((I52
g60
tp122
g14
tp123
a((I53
g1
tp124
g22
tp125
a((I54
g1
tp126
g19
tp127
a((I55
g1
tp128
g22
tp129
a((I56
g1
tp130
S'N'
p131
tp132
a((I57
g1
tp133
g42
tp134
a((I58
g1
tp135
g131
tp136
a((I59
g1
tp137
S'Y'
p138
tp139
a((I60
g1
tp140
g60
tp141
a((I61
g1
tp142
g3
tp143
a((I62
g1
tp144
g33
tp145
a((I63
g1
tp146
g67
tp147
a((I64
g1
tp148
g3
tp149
a((I65
g1
tp150
g28
tp151
a((I66
g1
tp152
g91
tp153
a((I67
g1
tp154
g14
tp155
a((I68
g1
tp156
g42
tp157
a((I69
g1
tp158
g112
tp159
a((I70
g1
tp160
g42
tp161
a((I71
g1
tp162
g91
tp163
a((I72
g1
tp164
S'D'
p165
tp166
a((I73
g1
tp167
g6
tp168
a((I74
g1
tp169
g19
tp170
a((I75
g1
tp171
g42
tp172
a((I76
g1
tp173
g19
tp174
a((I77
g1
tp175
g42
tp176
a((I78
g1
tp177
g60
tp178
a((I79
g1
tp179
g138
tp180
a((I80
g1
tp181
g6
tp182
a((I81
g1
tp183
g28
tp184
a((I82
g1
tp185
g11
tp186
a((I82
g60
tp187
g19
tp188
a((I82
S'B'
p189
tp190
g19
tp191
a((I82
g55
tp192
g11
tp193
a((I83
g1
tp194
g91
tp195
a((I84
g1
tp196
g19
tp197
a((I85
g1
tp198
g28
tp199
a((I86
g1
tp200
g165
tp201
a((I87
g1
tp202
g42
tp203
a((I88
g1
tp204
g60
tp205
a((I89
g1
tp206
g14
tp207
a((I90
g1
tp208
g138
tp209
a((I91
g1
tp210
g138
tp211
a((I92
g1
tp212
g55
tp213
a((I93
g1
tp214
g60
tp215
a((I94
g1
tp216
g60
tp217
a((I95
g1
tp218
g60
tp219
a((I96
g1
tp220
g28
tp221
a((I97
g1
tp222
g138
tp223
a((I98
g1
tp224
g67
tp225
a((I101
g1
tp226
g3
tp227
a((I102
g1
tp228
S'H'
p229
tp230
a((I103
g1
tp231
g86
tp232
a((I104
g1
tp233
g22
tp234
a((I105
g1
tp235
g3
tp236
a((I106
g1
tp237
g22
tp238
a((I107
g1
tp239
g42
tp240
a((I108
g1
tp241
g11
tp242
a((I109
g1
tp243
g14
tp244
a((I110
g1
tp245
g42
tp246
a((I111
g1
tp247
g14
tp248
a((I112
g1
tp249
g19
tp250
a((I113
g1
tp251
g19
tp252
a.