(lp0
((I1
S' '
p1
tp2
S'E'
p3
tp4
a((I2
g1
tp5
S'V'
p6
tp7
a((I3
g1
tp8
S'Q'
p9
tp10
a((I4
g1
tp11
S'L'
p12
tp13
a((I5
g1
tp14
g6
tp15
a((I6
g1
tp16
g3
tp17
a((I7
g1
tp18
S'S'
p19
tp20
a((I8
g1
tp21
S'G'
p22
tp23
a((I9
g1
tp24
g22
tp25
a((I10
g1
tp26
g22
tp27
a((I11
g1
tp28
g12
tp29
a((I12
g1
tp30
g6
tp31
a((I13
g1
tp32
S'K'
p33
tp34
a((I14
g1
tp35
S'P'
p36
tp37
a((I15
g1
tp38
g22
tp39
a((I16
g1
tp40
g22
tp41
a((I17
g1
tp42
g19
tp43
a((I18
g1
tp44
g12
tp45
a((I19
g1
tp46
S'R'
p47
tp48
a((I20
g1
tp49
g12
tp50
a((I21
g1
tp51
g19
tp52
a((I22
g1
tp53
S'C'
p54
tp55
a((I23
g1
tp56
S'A'
p57
tp58
a((I24
g1
tp59
g57
tp60
a((I25
g1
tp61
g19
tp62
a((I26
g1
tp63
g22
tp64
a((I27
g1
tp65
S'F'
p66
tp67
a((I28
g1
tp68
S'T'
p69
tp70
a((I29
g1
tp71
g66
tp72
a((I30
g1
tp73
g19
tp74
a((I31
g1
tp75
S'D'
p76
tp77
a((I32
g1
tp78
S'Y'
p79
tp80
a((I33
g1
tp81
g79
tp82
a((I34
g1
tp83
S'M'
p84
tp85
a((I35
g1
tp86
S'N'
p87
tp88
a((I36
g1
tp89
S'W'
p90
tp91
a((I37
g1
tp92
g6
tp93
a((I38
g1
tp94
g47
tp95
a((I39
g1
tp96
g9
tp97
a((I40
g1
tp98
g57
tp99
a((I41
g1
tp100
g36
tp101
a((I42
g1
tp102
g22
tp103
a((I43
g1
tp104
g33
tp105
a((I44
g1
tp106
g22
tp107
a((I45
g1
tp108
g12
tp109
a((I46
g1
tp110
g3
tp111
a((I47
g1
tp112
g90
tp113
a((I48
g1
tp114
g6
tp115
a((I49
g1
tp116
g19
tp117
a((I50
g1
tp118
g19
tp119
a((I51
g1
tp120
S'I'
p121
tp122
a((I52
g1
tp123
g19
tp124
a((I53
g1
tp125
g19
tp126
a((I54
g1
tp127
g19
tp128
a((I55
g1
tp129
g19
tp130
a((I56
g1
tp131
g69
tp132
a((I57
g1
tp133
g121
tp134
a((I58
g1
tp135
g79
tp136
a((I59
g1
tp137
g79
tp138
a((I60
g1
tp139
g57
tp140
a((I61
g1
tp141
g76
tp142
a((I62
g1
tp143
g19
tp144
a((I63
g1
tp145
g6
tp146
a((I64
g1
tp147
g33
tp148
a((I65
g1
tp149
g22
tp150
a((I66
g1
tp151
g47
tp152
a((I67
g1
tp153
g66
tp154
a((I68
g1
tp155
g69
tp156
a((I69
g1
tp157
g121
tp158
a((I70
g1
tp159
g19
tp160
a((I71
g1
tp161
g47
tp162
a((I72
g1
tp163
g76
tp164
a((I73
g1
tp165
g87
tp166
a((I74
g1
tp167
g57
tp168
a((I75
g1
tp169
g33
tp170
a((I76
g1
tp171
g87
tp172
a((I77
g1
tp173
g19
tp174
a((I78
g1
tp175
g12
tp176
a((I79
g1
tp177
g79
tp178
a((I80
g1
tp179
g12
tp180
a((I81
g1
tp181
g9
tp182
a((I82
g1
tp183
g84
tp184
a((I82
g57
tp185
g87
tp186
a((I82
S'B'
p187
tp188
g19
tp189
a((I82
g54
tp190
g12
tp191
a((I83
g1
tp192
g47
tp193
a((I84
g1
tp194
g57
tp195
a((I85
g1
tp196
g3
tp197
a((I86
g1
tp198
g76
tp199
a((I87
g1
tp200
g69
tp201
a((I88
g1
tp202
g57
tp203
a((I89
g1
tp204
g6
tp205
a((I90
g1
tp206
g79
tp207
a((I91
g1
tp208
g79
tp209
a((I92
g1
tp210
g54
tp211
a((I93
g1
tp212
g57
tp213
a((I94
g1
tp214
g47
tp215
a((I95
g1
tp216
g79
tp217
a((I96
g1
tp218
g79
tp219
a((I97
g1
tp220
g79
tp221
a((I98
g1
tp222
g79
tp223
a((I99
g1
tp224
g79
tp225
a((I100
g1
tp226
g22
tp227
a((I100
g57
tp228
g84
tp229
a((I101
g1
tp230
g76
tp231
a((I102
g1
tp232
g6
tp233
a((I103
g1
tp234
g90
tp235
a((I104
g1
tp236
g22
tp237
a((I105
g1
tp238
g9
tp239
a((I106
g1
tp240
g22
tp241
a((I107
g1
tp242
g69
tp243
a((I108
g1
tp244
g69
tp245
a((I109
g1
tp246
g6
tp247
a((I110
g1
tp248
g69
tp249
a((I111
g1
tp250
g6
tp251
a((I112
g1
tp252
g19
tp253
a((I113
g1
tp254
g19
tp255
a.