(lp0
((I1
S' '
p1
tp2
S'E'
p3
tp4
a((I2
g1
tp5
S'V'
p6
tp7
a((I3
g1
tp8
g3
tp9
a((I4
g1
tp10
S'L'
p11
tp12
a((I5
g1
tp13
S'I'
p14
tp15
a((I6
g1
tp16
g3
tp17
a((I7
g1
tp18
S'S'
p19
tp20
a((I8
g1
tp21
g14
tp22
a((I9
g1
tp23
g3
tp24
a((I10
g1
tp25
S'G'
p26
tp27
a((I11
g1
tp28
g11
tp29
a((I12
g1
tp30
S'R'
p31
tp32
a((I13
g1
tp33
S'Q'
p34
tp35
a((I14
g1
tp36
g11
tp37
a((I15
g1
tp38
g26
tp39
a((I16
g1
tp40
S'K'
p41
tp42
a((I17
g1
tp43
S'F'
p44
tp45
a((I18
g1
tp46
g11
tp47
a((I19
g1
tp48
g31
tp49
a((I20
g1
tp50
g11
tp51
a((I21
g1
tp52
g19
tp53
a((I22
g1
tp54
S'C'
p55
tp56
a((I23
g1
tp57
g6
tp58
a((I24
g1
tp59
S'A'
p60
tp61
a((I25
g1
tp62
g19
tp63
a((I26
g1
tp64
g26
tp65
a((I27
g1
tp66
g44
tp67
a((I28
g1
tp68
S'T'
p69
tp70
a((I29
g1
tp71
g44
tp72
a((I30
g1
tp73
g19
tp74
a((I31
g1
tp75
g19
tp76
a((I32
g1
tp77
S'Y'
p78
tp79
a((I33
g1
tp80
S'-'
p81
tp82
a((I34
g1
tp83
S'M'
p84
tp85
a((I35
g1
tp86
g19
tp87
a((I36
g1
tp88
S'W'
p89
tp90
a((I37
g1
tp91
g6
tp92
a((I38
g1
tp93
S'N'
p94
tp95
a((I39
g1
tp96
g3
tp97
a((I40
g1
tp98
g69
tp99
a((I41
g1
tp100
g11
tp101
a((I42
g1
tp102
g26
tp103
a((I43
g1
tp104
g41
tp105
a((I44
g1
tp106
g26
tp107
a((I45
g1
tp108
g11
tp109
a((I46
g1
tp110
g3
tp111
a((I47
g1
tp112
g26
tp113
a((I48
g1
tp114
g6
tp115
a((I49
g1
tp116
g14
tp117
a((I50
g1
tp118
S'D'
p119
tp120
a((I51
g1
tp121
g6
tp122
a((I52
g1
tp123
g41
tp124
a((I52
g60
tp125
g78
tp126
a((I53
g1
tp127
g119
tp128
a((I54
g1
tp129
g26
tp130
a((I55
g1
tp131
g19
tp132
a((I56
g1
tp133
g34
tp134
a((I57
g1
tp135
g14
tp136
a((I58
g1
tp137
g78
tp138
a((I59
g1
tp139
S'H'
p140
tp141
a((I60
g1
tp142
g60
tp143
a((I61
g1
tp144
g119
tp145
a((I62
g1
tp146
g19
tp147
a((I63
g1
tp148
g6
tp149
a((I64
g1
tp150
g41
tp151
a((I65
g1
tp152
g26
tp153
a((I66
g1
tp154
g31
tp155
a((I67
g1
tp156
g44
tp157
a((I68
g1
tp158
g69
tp159
a((I69
g1
tp160
g14
tp161
a((I70
g1
tp162
g19
tp163
a((I71
g1
tp164
g41
tp165
a((I72
g1
tp166
g119
tp167
a((I73
g1
tp168
g94
tp169
a((I74
g1
tp170
g60
tp171
a((I75
g1
tp172
g41
tp173
a((I76
g1
tp174
g94
tp175
a((I77
g1
tp176
g19
tp177
a((I78
g1
tp178
S'P'
p179
tp180
a((I79
g1
tp181
g78
tp182
a((I80
g1
tp183
g11
tp184
a((I81
g1
tp185
g34
tp186
a((I82
g1
tp187
g69
tp188
a((I82
g60
tp189
g94
tp190
a((I82
S'B'
p191
tp192
g19
tp193
a((I82
g55
tp194
g11
tp195
a((I83
g1
tp196
g31
tp197
a((I84
g1
tp198
g60
tp199
a((I85
g1
tp200
g3
tp201
a((I86
g1
tp202
g119
tp203
a((I87
g1
tp204
g84
tp205
a((I88
g1
tp206
g69
tp207
a((I89
g1
tp208
g84
tp209
a((I90
g1
tp210
g140
tp211
a((I91
g1
tp212
g26
tp213
a((I92
g1
tp214
g55
tp215
a((I93
g1
tp216
g69
tp217
a((I94
g1
tp218
g26
tp219
a((I95
g1
tp220
g119
tp221
a((I96
g1
tp222
g60
tp223
a((I97
g1
tp224
g44
tp225
a((I101
g1
tp226
g119
tp227
a((I102
g1
tp228
g6
tp229
a((I103
g1
tp230
g89
tp231
a((I104
g1
tp232
g26
tp233
a((I105
g1
tp234
g34
tp235
a((I106
g1
tp236
g26
tp237
a((I107
g1
tp238
g69
tp239
a((I108
g1
tp240
g84
tp241
a((I109
g1
tp242
g6
tp243
a((I110
g1
tp244
g69
tp245
a((I111
g1
tp246
g6
tp247
a((I112
g1
tp248
g19
tp249
a((I113
g1
tp250
g19
tp251
a.