(lp0
((I1
S' '
p1
tp2
S'E'
p3
tp4
a((I2
g1
tp5
S'M'
p6
tp7
a((I3
g1
tp8
S'Q'
p9
tp10
a((I4
g1
tp11
S'L'
p12
tp13
a((I5
g1
tp14
S'V'
p15
tp16
a((I6
g1
tp17
g3
tp18
a((I7
g1
tp19
S'S'
p20
tp21
a((I8
g1
tp22
S'G'
p23
tp24
a((I9
g1
tp25
g23
tp26
a((I10
g1
tp27
g23
tp28
a((I11
g1
tp29
g12
tp30
a((I12
g1
tp31
g9
tp32
a((I13
g1
tp33
S'K'
p34
tp35
a((I14
g1
tp36
S'P'
p37
tp38
a((I15
g1
tp39
S'A'
p40
tp41
a((I16
g1
tp42
S'W'
p43
tp44
a((I17
g1
tp45
g20
tp46
a((I18
g1
tp47
g37
tp48
a((I19
g1
tp49
S'R'
p50
tp51
a((I20
g1
tp52
g12
tp53
a((I21
g1
tp54
g20
tp55
a((I22
g1
tp56
S'C'
p57
tp58
a((I23
g1
tp59
g40
tp60
a((I24
g1
tp61
g40
tp62
a((I25
g1
tp63
g20
tp64
a((I26
g1
tp65
g9
tp66
a((I27
g1
tp67
S'F'
p68
tp69
a((I28
g1
tp70
S'T'
p71
tp72
a((I29
g1
tp73
g68
tp74
a((I30
g1
tp75
g20
tp76
a((I31
g1
tp77
g20
tp78
a((I32
g1
tp79
S'Y'
p80
tp81
a((I33
g1
tp82
g80
tp83
a((I34
g1
tp84
g6
tp85
a((I35
g1
tp86
S'N'
p87
tp88
a((I36
g1
tp89
g57
tp90
a((I37
g1
tp91
g15
tp92
a((I38
g1
tp93
g50
tp94
a((I39
g1
tp95
g9
tp96
a((I40
g1
tp97
g40
tp98
a((I41
g1
tp99
g37
tp100
a((I42
g1
tp101
g23
tp102
a((I43
g1
tp103
g87
tp104
a((I44
g1
tp105
g23
tp106
a((I45
g1
tp107
g12
tp108
a((I46
g1
tp109
g3
tp110
a((I47
g1
tp111
g12
tp112
a((I48
g1
tp113
g15
tp114
a((I49
g1
tp115
g9
tp116
a((I50
g1
tp117
g15
tp118
a((I51
g1
tp119
g87
tp120
a((I52
g1
tp121
g37
tp122
a((I53
g1
tp123
g87
tp124
a((I54
g1
tp125
g23
tp126
a((I55
g1
tp127
g23
tp128
a((I56
g1
tp129
g20
tp130
a((I57
g1
tp131
g71
tp132
a((I58
g1
tp133
g80
tp134
a((I59
g1
tp135
g12
tp136
a((I60
g1
tp137
S'I'
p138
tp139
a((I61
g1
tp140
S'D'
p141
tp142
a((I62
g1
tp143
g20
tp144
a((I63
g1
tp145
g23
tp146
a((I64
g1
tp147
g34
tp148
a((I65
g1
tp149
g141
tp150
a((I66
g1
tp151
g50
tp152
a((I67
g1
tp153
g68
tp154
a((I68
g1
tp155
g87
tp156
a((I69
g1
tp157
g71
tp158
a((I70
g1
tp159
g20
tp160
a((I71
g1
tp161
g50
tp162
a((I72
g1
tp163
g141
tp164
a((I73
g1
tp165
g87
tp166
a((I74
g1
tp167
g40
tp168
a((I75
g1
tp169
g34
tp170
a((I76
g1
tp171
g87
tp172
a((I77
g1
tp173
g71
tp174
a((I78
g1
tp175
g12
tp176
a((I79
g1
tp177
S'H'
p178
tp179
a((I80
g1
tp180
g12
tp181
a((I81
g1
tp182
g9
tp183
a((I82
g1
tp184
g6
tp185
a((I82
g40
tp186
g87
tp187
a((I82
S'B'
p188
tp189
g20
tp190
a((I82
g57
tp191
g12
tp192
a((I83
g1
tp193
g34
tp194
a((I84
g1
tp195
g71
tp196
a((I85
g1
tp197
g3
tp198
a((I86
g1
tp199
g141
tp200
a((I87
g1
tp201
g71
tp202
a((I88
g1
tp203
g40
tp204
a((I89
g1
tp205
g12
tp206
a((I90
g1
tp207
S'-'
p208
tp209
a((I91
g1
tp210
g80
tp211
a((I92
g1
tp212
g57
tp213
a((I93
g1
tp214
g71
tp215
a((I94
g1
tp216
g50
tp217
a((I95
g1
tp218
g141
tp219
a((I96
g1
tp220
g40
tp221
a((I97
g1
tp222
g68
tp223
a((I101
g1
tp224
g141
tp225
a((I102
g1
tp226
g15
tp227
a((I103
g1
tp228
g43
tp229
a((I104
g1
tp230
g23
tp231
a((I105
g1
tp232
g9
tp233
a((I106
g1
tp234
g23
tp235
a((I107
g1
tp236
g71
tp237
a((I108
g1
tp238
g6
tp239
a((I109
g1
tp240
g15
tp241
a((I110
g1
tp242
g71
tp243
a((I111
g1
tp244
g15
tp245
a((I112
g1
tp246
g20
tp247
a((I113
g1
tp248
g20
tp249
a.