(lp0
((I1
S' '
p1
tp2
S'E'
p3
tp4
a((I2
g1
tp5
S'V'
p6
tp7
a((I3
g1
tp8
S'Q'
p9
tp10
a((I4
g1
tp11
S'L'
p12
tp13
a((I5
g1
tp14
g6
tp15
a((I6
g1
tp16
g3
tp17
a((I7
g1
tp18
S'S'
p19
tp20
a((I8
g1
tp21
S'G'
p22
tp23
a((I9
g1
tp24
g22
tp25
a((I10
g1
tp26
g6
tp27
a((I11
g1
tp28
g6
tp29
a((I12
g1
tp30
g6
tp31
a((I13
g1
tp32
g9
tp33
a((I14
g1
tp34
S'P'
p35
tp36
a((I15
g1
tp37
g22
tp38
a((I16
g1
tp39
g22
tp40
a((I17
g1
tp41
g19
tp42
a((I18
g1
tp43
g12
tp44
a((I19
g1
tp45
S'R'
p46
tp47
a((I20
g1
tp48
g12
tp49
a((I21
g1
tp50
g19
tp51
a((I22
g1
tp52
S'C'
p53
tp54
a((I23
g1
tp55
S'A'
p56
tp57
a((I24
g1
tp58
g56
tp59
a((I25
g1
tp60
g19
tp61
a((I26
g1
tp62
g22
tp63
a((I27
g1
tp64
S'F'
p65
tp66
a((I28
g1
tp67
S'T'
p68
tp69
a((I29
g1
tp70
g65
tp71
a((I30
g1
tp72
S'D'
p73
tp74
a((I31
g1
tp75
g73
tp76
a((I32
g1
tp77
S'Y'
p78
tp79
a((I33
g1
tp80
g56
tp81
a((I34
g1
tp82
S'M'
p83
tp84
a((I35
g1
tp85
S'H'
p86
tp87
a((I36
g1
tp88
S'W'
p89
tp90
a((I37
g1
tp91
g6
tp92
a((I38
g1
tp93
g46
tp94
a((I39
g1
tp95
g9
tp96
a((I40
g1
tp97
g56
tp98
a((I41
g1
tp99
g35
tp100
a((I42
g1
tp101
g22
tp102
a((I43
g1
tp103
S'K'
p104
tp105
a((I44
g1
tp106
g22
tp107
a((I45
g1
tp108
g12
tp109
a((I46
g1
tp110
g3
tp111
a((I47
g1
tp112
g89
tp113
a((I48
g1
tp114
g6
tp115
a((I49
g1
tp116
g19
tp117
a((I50
g1
tp118
g12
tp119
a((I51
g1
tp120
S'I'
p121
tp122
a((I52
g1
tp123
g19
tp124
a((I52
g56
tp125
g89
tp126
a((I53
g1
tp127
g73
tp128
a((I54
g1
tp129
g22
tp130
a((I55
g1
tp131
g22
tp132
a((I56
g1
tp133
g19
tp134
a((I57
g1
tp135
g68
tp136
a((I58
g1
tp137
g78
tp138
a((I59
g1
tp139
g78
tp140
a((I60
g1
tp141
g56
tp142
a((I61
g1
tp143
g73
tp144
a((I62
g1
tp145
g19
tp146
a((I63
g1
tp147
g6
tp148
a((I64
g1
tp149
g104
tp150
a((I65
g1
tp151
g22
tp152
a((I66
g1
tp153
g46
tp154
a((I67
g1
tp155
g65
tp156
a((I68
g1
tp157
g68
tp158
a((I69
g1
tp159
g121
tp160
a((I70
g1
tp161
g19
tp162
a((I71
g1
tp163
g46
tp164
a((I72
g1
tp165
g73
tp166
a((I73
g1
tp167
S'N'
p168
tp169
a((I74
g1
tp170
g19
tp171
a((I75
g1
tp172
g104
tp173
a((I76
g1
tp174
g168
tp175
a((I77
g1
tp176
g19
tp177
a((I78
g1
tp178
g12
tp179
a((I79
g1
tp180
g78
tp181
a((I80
g1
tp182
g12
tp183
a((I81
g1
tp184
g9
tp185
a((I82
g1
tp186
g83
tp187
a((I82
g56
tp188
g168
tp189
a((I82
S'B'
p190
tp191
g19
tp192
a((I82
g53
tp193
g12
tp194
a((I83
g1
tp195
g46
tp196
a((I84
g1
tp197
g56
tp198
a((I85
g1
tp199
g3
tp200
a((I86
g1
tp201
g73
tp202
a((I87
g1
tp203
g68
tp204
a((I88
g1
tp205
g56
tp206
a((I89
g1
tp207
g12
tp208
a((I90
g1
tp209
g78
tp210
a((I91
g1
tp211
g78
tp212
a((I92
g1
tp213
g53
tp214
a((I93
g1
tp215
g56
tp216
a((I94
g1
tp217
g104
tp218
a((I95
g1
tp219
g73
tp220
a((I96
g1
tp221
g73
tp222
a((I97
g1
tp223
g56
tp224
a((I98
g1
tp225
g65
tp226
a((I101
g1
tp227
g73
tp228
a((I102
g1
tp229
g6
tp230
a((I103
g1
tp231
g89
tp232
a((I104
g1
tp233
g22
tp234
a((I105
g1
tp235
g9
tp236
a((I106
g1
tp237
g22
tp238
a((I107
g1
tp239
g68
tp240
a((I108
g1
tp241
g83
tp242
a((I109
g1
tp243
g6
tp244
a((I110
g1
tp245
g68
tp246
a((I111
g1
tp247
g6
tp248
a((I112
g1
tp249
g19
tp250
a((I113
g1
tp251
g19
tp252
a.