(lp0
((I1
S' '
p1
tp2
S'E'
p3
tp4
a((I2
g1
tp5
S'I'
p6
tp7
a((I3
g1
tp8
S'V'
p9
tp10
a((I4
g1
tp11
S'L'
p12
tp13
a((I5
g1
tp14
S'T'
p15
tp16
a((I6
g1
tp17
S'Q'
p18
tp19
a((I7
g1
tp20
S'S'
p21
tp22
a((I8
g1
tp23
S'P'
p24
tp25
a((I9
g1
tp26
S'D'
p27
tp28
a((I10
g1
tp29
S'F'
p30
tp31
a((I11
g1
tp32
g18
tp33
a((I12
g1
tp34
g21
tp35
a((I13
g1
tp36
g9
tp37
a((I14
g1
tp38
g15
tp39
a((I15
g1
tp40
g24
tp41
a((I16
g1
tp42
S'K'
p43
tp44
a((I17
g1
tp45
g3
tp46
a((I18
g1
tp47
g43
tp48
a((I19
g1
tp49
g9
tp50
a((I20
g1
tp51
g15
tp52
a((I21
g1
tp53
g6
tp54
a((I22
g1
tp55
g15
tp56
a((I23
g1
tp57
S'C'
p58
tp59
a((I24
g1
tp60
S'R'
p61
tp62
a((I25
g1
tp63
S'A'
p64
tp65
a((I26
g1
tp66
g21
tp67
a((I27
g1
tp68
g18
tp69
a((I28
g1
tp70
g21
tp71
a((I29
g1
tp72
g6
tp73
a((I30
g1
tp74
S'G'
p75
tp76
a((I31
g1
tp77
g21
tp78
a((I32
g1
tp79
g21
tp80
a((I33
g1
tp81
g12
tp82
a((I34
g1
tp83
S'H'
p84
tp85
a((I35
g1
tp86
S'W'
p87
tp88
a((I36
g1
tp89
S'Y'
p90
tp91
a((I37
g1
tp92
g18
tp93
a((I38
g1
tp94
g18
tp95
a((I39
g1
tp96
g43
tp97
a((I40
g1
tp98
g24
tp99
a((I41
g1
tp100
g27
tp101
a((I42
g1
tp102
g18
tp103
a((I43
g1
tp104
g21
tp105
a((I44
g1
tp106
g24
tp107
a((I45
g1
tp108
g43
tp109
a((I46
g1
tp110
g12
tp111
a((I47
g1
tp112
g12
tp113
a((I48
g1
tp114
g6
tp115
a((I49
g1
tp116
g43
tp117
a((I50
g1
tp118
g90
tp119
a((I51
g1
tp120
g64
tp121
a((I52
g1
tp122
g21
tp123
a((I53
g1
tp124
g18
tp125
a((I54
g1
tp126
g21
tp127
a((I55
g1
tp128
g30
tp129
a((I56
g1
tp130
g21
tp131
a((I57
g1
tp132
g75
tp133
a((I58
g1
tp134
g9
tp135
a((I59
g1
tp136
g24
tp137
a((I60
g1
tp138
g21
tp139
a((I61
g1
tp140
g61
tp141
a((I62
g1
tp142
g30
tp143
a((I63
g1
tp144
g21
tp145
a((I64
g1
tp146
g75
tp147
a((I65
g1
tp148
g21
tp149
a((I66
g1
tp150
g75
tp151
a((I67
g1
tp152
g21
tp153
a((I68
g1
tp154
g75
tp155
a((I69
g1
tp156
g15
tp157
a((I70
g1
tp158
g27
tp159
a((I71
g1
tp160
g30
tp161
a((I72
g1
tp162
g15
tp163
a((I73
g1
tp164
g12
tp165
a((I74
g1
tp166
g15
tp167
a((I75
g1
tp168
g6
tp169
a((I76
g1
tp170
S'N'
p171
tp172
a((I77
g1
tp173
g21
tp174
a((I78
g1
tp175
g12
tp176
a((I79
g1
tp177
g3
tp178
a((I80
g1
tp179
g64
tp180
a((I81
g1
tp181
g3
tp182
a((I82
g1
tp183
g27
tp184
a((I83
g1
tp185
g64
tp186
a((I84
g1
tp187
g64
tp188
a((I85
g1
tp189
g15
tp190
a((I86
g1
tp191
g90
tp192
a((I87
g1
tp193
g90
tp194
a((I88
g1
tp195
g58
tp196
a((I89
g1
tp197
g84
tp198
a((I90
g1
tp199
g18
tp200
a((I91
g1
tp201
g21
tp202
a((I92
g1
tp203
g21
tp204
a((I93
g1
tp205
g21
tp206
a((I94
g1
tp207
g12
tp208
a((I95
g1
tp209
g24
tp210
a((I96
g1
tp211
g87
tp212
a((I97
g1
tp213
g15
tp214
a((I98
g1
tp215
g30
tp216
a((I99
g1
tp217
g75
tp218
a((I100
g1
tp219
g18
tp220
a((I101
g1
tp221
g75
tp222
a((I102
g1
tp223
g15
tp224
a((I103
g1
tp225
g43
tp226
a((I104
g1
tp227
g9
tp228
a((I105
g1
tp229
g3
tp230
a((I106
g1
tp231
g6
tp232
a((I107
g1
tp233
g43
tp234
a.