(lp0
((I1
S' '
p1
tp2
S'N'
p3
tp4
a((I2
g1
tp5
S'I'
p6
tp7
a((I3
g1
tp8
S'Q'
p9
tp10
a((I4
g1
tp11
S'M'
p12
tp13
a((I5
g1
tp14
S'T'
p15
tp16
a((I6
g1
tp17
g9
tp18
a((I7
g1
tp19
S'S'
p20
tp21
a((I8
g1
tp22
S'P'
p23
tp24
a((I9
g1
tp25
g20
tp26
a((I10
g1
tp27
S'A'
p28
tp29
a((I11
g1
tp30
g12
tp31
a((I12
g1
tp32
g20
tp33
a((I13
g1
tp34
g28
tp35
a((I14
g1
tp36
g20
tp37
a((I15
g1
tp38
S'V'
p39
tp40
a((I16
g1
tp41
S'G'
p42
tp43
a((I17
g1
tp44
S'D'
p45
tp46
a((I18
g1
tp47
S'R'
p48
tp49
a((I19
g1
tp50
g39
tp51
a((I20
g1
tp52
g15
tp53
a((I21
g1
tp54
g6
tp55
a((I22
g1
tp56
g15
tp57
a((I23
g1
tp58
S'C'
p59
tp60
a((I24
g1
tp61
g48
tp62
a((I25
g1
tp63
g28
tp64
a((I26
g1
tp65
g48
tp66
a((I27
g1
tp67
g9
tp68
a((I28
g1
tp69
g42
tp70
a((I29
g1
tp71
g6
tp72
a((I30
g1
tp73
g20
tp74
a((I31
g1
tp75
g3
tp76
a((I32
g1
tp77
S'Y'
p78
tp79
a((I33
g1
tp80
S'L'
p81
tp82
a((I34
g1
tp83
g28
tp84
a((I35
g1
tp85
S'W'
p86
tp87
a((I36
g1
tp88
S'F'
p89
tp90
a((I37
g1
tp91
g9
tp92
a((I38
g1
tp93
g9
tp94
a((I39
g1
tp95
S'K'
p96
tp97
a((I40
g1
tp98
g23
tp99
a((I41
g1
tp100
g42
tp101
a((I42
g1
tp102
g96
tp103
a((I43
g1
tp104
g39
tp105
a((I44
g1
tp106
g23
tp107
a((I45
g1
tp108
g96
tp109
a((I46
g1
tp110
S'H'
p111
tp112
a((I47
g1
tp113
g81
tp114
a((I48
g1
tp115
g6
tp116
a((I49
g1
tp117
g78
tp118
a((I50
g1
tp119
g28
tp120
a((I51
g1
tp121
g28
tp122
a((I52
g1
tp123
g20
tp124
a((I53
g1
tp125
g20
tp126
a((I54
g1
tp127
g81
tp128
a((I55
g1
tp129
g9
tp130
a((I56
g1
tp131
g20
tp132
a((I57
g1
tp133
g42
tp134
a((I58
g1
tp135
g39
tp136
a((I59
g1
tp137
g23
tp138
a((I60
g1
tp139
g20
tp140
a((I61
g1
tp141
g48
tp142
a((I62
g1
tp143
g89
tp144
a((I63
g1
tp145
g20
tp146
a((I64
g1
tp147
g42
tp148
a((I65
g1
tp149
g20
tp150
a((I66
g1
tp151
g42
tp152
a((I67
g1
tp153
g20
tp154
a((I68
g1
tp155
g42
tp156
a((I69
g1
tp157
g15
tp158
a((I70
g1
tp159
S'E'
p160
tp161
a((I71
g1
tp162
g89
tp163
a((I72
g1
tp164
g15
tp165
a((I73
g1
tp166
g81
tp167
a((I74
g1
tp168
g15
tp169
a((I75
g1
tp170
g6
tp171
a((I76
g1
tp172
g20
tp173
a((I77
g1
tp174
g20
tp175
a((I78
g1
tp176
g81
tp177
a((I79
g1
tp178
g9
tp179
a((I80
g1
tp180
g23
tp181
a((I81
g1
tp182
g160
tp183
a((I82
g1
tp184
g45
tp185
a((I83
g1
tp186
g89
tp187
a((I84
g1
tp188
g28
tp189
a((I85
g1
tp190
g15
tp191
a((I86
g1
tp192
g78
tp193
a((I87
g1
tp194
g78
tp195
a((I88
g1
tp196
g59
tp197
a((I89
g1
tp198
g81
tp199
a((I90
g1
tp200
g9
tp201
a((I91
g1
tp202
g111
tp203
a((I92
g1
tp204
g3
tp205
a((I93
g1
tp206
g20
tp207
a((I94
g1
tp208
g78
tp209
a((I95
g1
tp210
g23
tp211
a((I96
g1
tp212
g81
tp213
a((I97
g1
tp214
g15
tp215
a((I98
g1
tp216
g89
tp217
a((I99
g1
tp218
g42
tp219
a((I100
g1
tp220
g42
tp221
a((I101
g1
tp222
g42
tp223
a((I102
g1
tp224
g15
tp225
a((I103
g1
tp226
g96
tp227
a((I104
g1
tp228
g39
tp229
a((I105
g1
tp230
g160
tp231
a((I106
g1
tp232
g6
tp233
a((I107
g1
tp234
g96
tp235
a.