(lp0
((I1
S' '
p1
tp2
S'D'
p3
tp4
a((I2
g1
tp5
S'I'
p6
tp7
a((I3
g1
tp8
S'V'
p9
tp10
a((I4
g1
tp11
S'M'
p12
tp13
a((I5
g1
tp14
S'T'
p15
tp16
a((I6
g1
tp17
S'Q'
p18
tp19
a((I7
g1
tp20
g15
tp21
a((I8
g1
tp22
S'P'
p23
tp24
a((I9
g1
tp25
S'L'
p26
tp27
a((I10
g1
tp28
S'S'
p29
tp30
a((I11
g1
tp31
g29
tp32
a((I12
g1
tp33
g23
tp34
a((I13
g1
tp35
g9
tp36
a((I14
g1
tp37
g15
tp38
a((I15
g1
tp39
g26
tp40
a((I16
g1
tp41
S'G'
p42
tp43
a((I17
g1
tp44
g18
tp45
a((I18
g1
tp46
g23
tp47
a((I19
g1
tp48
S'A'
p49
tp50
a((I20
g1
tp51
g29
tp52
a((I21
g1
tp53
g6
tp54
a((I22
g1
tp55
g29
tp56
a((I23
g1
tp57
S'F'
p58
tp59
a((I24
g1
tp60
S'R'
p61
tp62
a((I25
g1
tp63
g29
tp64
a((I26
g1
tp65
g29
tp66
a((I27
g1
tp67
g18
tp68
a((I28
g1
tp69
g29
tp70
a((I29
g1
tp71
g26
tp72
a((I30
g1
tp73
g9
tp74
a((I30
g49
tp75
S'H'
p76
tp77
a((I30
S'B'
p78
tp79
g29
tp80
a((I30
S'C'
p81
tp82
g3
tp83
a((I30
g3
tp84
g42
tp85
a((I30
S'E'
p86
tp87
S'N'
p88
tp89
a((I31
g1
tp90
g15
tp91
a((I32
g1
tp92
S'Y'
p93
tp94
a((I33
g1
tp95
g26
tp96
a((I34
g1
tp97
g29
tp98
a((I35
g1
tp99
S'W'
p100
tp101
a((I36
g1
tp102
g26
tp103
a((I37
g1
tp104
g18
tp105
a((I38
g1
tp106
g18
tp107
a((I39
g1
tp108
g61
tp109
a((I40
g1
tp110
g23
tp111
a((I41
g1
tp112
g42
tp113
a((I42
g1
tp114
g18
tp115
a((I43
g1
tp116
g23
tp117
a((I44
g1
tp118
g23
tp119
a((I45
g1
tp120
g61
tp121
a((I46
g1
tp122
g26
tp123
a((I47
g1
tp124
g26
tp125
a((I48
g1
tp126
g6
tp127
a((I49
g1
tp128
g93
tp129
a((I50
g1
tp130
S'K'
p131
tp132
a((I51
g1
tp133
g9
tp134
a((I52
g1
tp135
g29
tp136
a((I53
g1
tp137
g88
tp138
a((I54
g1
tp139
g61
tp140
a((I55
g1
tp141
g58
tp142
a((I56
g1
tp143
g29
tp144
a((I57
g1
tp145
g42
tp146
a((I58
g1
tp147
g9
tp148
a((I59
g1
tp149
g23
tp150
a((I60
g1
tp151
g3
tp152
a((I61
g1
tp153
g61
tp154
a((I62
g1
tp155
g58
tp156
a((I63
g1
tp157
g29
tp158
a((I64
g1
tp159
g42
tp160
a((I65
g1
tp161
g29
tp162
a((I66
g1
tp163
g42
tp164
a((I67
g1
tp165
g49
tp166
a((I68
g1
tp167
g42
tp168
a((I69
g1
tp169
g15
tp170
a((I70
g1
tp171
g3
tp172
a((I71
g1
tp173
g58
tp174
a((I72
g1
tp175
g15
tp176
a((I73
g1
tp177
g26
tp178
a((I74
g1
tp179
g131
tp180
a((I75
g1
tp181
g6
tp182
a((I76
g1
tp183
g29
tp184
a((I77
g1
tp185
g61
tp186
a((I78
g1
tp187
g9
tp188
a((I79
g1
tp189
g86
tp190
a((I80
g1
tp191
g49
tp192
a((I81
g1
tp193
g86
tp194
a((I82
g1
tp195
g3
tp196
a((I83
g1
tp197
g9
tp198
a((I84
g1
tp199
g42
tp200
a((I85
g1
tp201
g9
tp202
a((I86
g1
tp203
g93
tp204
a((I87
g1
tp205
g93
tp206
a((I88
g1
tp207
g81
tp208
a((I89
g1
tp209
g15
tp210
a((I90
g1
tp211
g18
tp212
a((I91
g1
tp213
g49
tp214
a((I92
g1
tp215
g15
tp216
a((I93
g1
tp217
g18
tp218
a((I94
g1
tp219
g58
tp220
a((I95
g1
tp221
g23
tp222
a((I96
g1
tp223
g93
tp224
a((I97
g1
tp225
g15
tp226
a((I98
g1
tp227
g58
tp228
a((I99
g1
tp229
g42
tp230
a((I100
g1
tp231
g18
tp232
a((I101
g1
tp233
g42
tp234
a((I102
g1
tp235
g15
tp236
a((I103
g1
tp237
g131
tp238
a((I104
g1
tp239
g26
tp240
a((I105
g1
tp241
g86
tp242
a((I106
g1
tp243
g6
tp244
a((I107
g1
tp245
g131
tp246
a.