(lp0
((I1
S' '
p1
tp2
S'A'
p3
tp4
a((I2
g1
tp5
S'I'
p6
tp7
a((I3
g1
tp8
S'Q'
p9
tp10
a((I4
g1
tp11
S'M'
p12
tp13
a((I5
g1
tp14
S'T'
p15
tp16
a((I6
g1
tp17
g9
tp18
a((I7
g1
tp19
S'S'
p20
tp21
a((I8
g1
tp22
S'P'
p23
tp24
a((I9
g1
tp25
g20
tp26
a((I10
g1
tp27
g20
tp28
a((I11
g1
tp29
S'L'
p30
tp31
a((I12
g1
tp32
g20
tp33
a((I13
g1
tp34
g3
tp35
a((I14
g1
tp36
g20
tp37
a((I15
g1
tp38
S'V'
p39
tp40
a((I16
g1
tp41
S'G'
p42
tp43
a((I17
g1
tp44
S'D'
p45
tp46
a((I18
g1
tp47
S'R'
p48
tp49
a((I19
g1
tp50
g39
tp51
a((I20
g1
tp52
g15
tp53
a((I21
g1
tp54
g6
tp55
a((I22
g1
tp56
g15
tp57
a((I23
g1
tp58
S'C'
p59
tp60
a((I24
g1
tp61
g48
tp62
a((I25
g1
tp63
g3
tp64
a((I26
g1
tp65
g20
tp66
a((I27
g1
tp67
g9
tp68
a((I28
g1
tp69
g42
tp70
a((I29
g1
tp71
g6
tp72
a((I30
g1
tp73
g48
tp74
a((I31
g1
tp75
S'N'
p76
tp77
a((I32
g1
tp78
g45
tp79
a((I33
g1
tp80
g30
tp81
a((I34
g1
tp82
g42
tp83
a((I35
g1
tp84
S'W'
p85
tp86
a((I36
g1
tp87
S'Y'
p88
tp89
a((I37
g1
tp90
g9
tp91
a((I38
g1
tp92
g9
tp93
a((I39
g1
tp94
S'K'
p95
tp96
a((I40
g1
tp97
g23
tp98
a((I41
g1
tp99
g42
tp100
a((I42
g1
tp101
g95
tp102
a((I43
g1
tp103
g3
tp104
a((I44
g1
tp105
g23
tp106
a((I45
g1
tp107
g95
tp108
a((I46
g1
tp109
g30
tp110
a((I47
g1
tp111
g30
tp112
a((I48
g1
tp113
g6
tp114
a((I49
g1
tp115
g88
tp116
a((I50
g1
tp117
g3
tp118
a((I51
g1
tp119
g3
tp120
a((I52
g1
tp121
g20
tp122
a((I53
g1
tp123
g20
tp124
a((I54
g1
tp125
g30
tp126
a((I55
g1
tp127
g9
tp128
a((I56
g1
tp129
g20
tp130
a((I57
g1
tp131
g42
tp132
a((I58
g1
tp133
g39
tp134
a((I59
g1
tp135
g23
tp136
a((I60
g1
tp137
g20
tp138
a((I61
g1
tp139
g48
tp140
a((I62
g1
tp141
S'F'
p142
tp143
a((I63
g1
tp144
g20
tp145
a((I64
g1
tp146
g42
tp147
a((I65
g1
tp148
g20
tp149
a((I66
g1
tp150
g42
tp151
a((I67
g1
tp152
g20
tp153
a((I68
g1
tp154
g42
tp155
a((I69
g1
tp156
g15
tp157
a((I70
g1
tp158
g45
tp159
a((I71
g1
tp160
g142
tp161
a((I72
g1
tp162
g15
tp163
a((I73
g1
tp164
g30
tp165
a((I74
g1
tp166
g15
tp167
a((I75
g1
tp168
g6
tp169
a((I76
g1
tp170
g20
tp171
a((I77
g1
tp172
g20
tp173
a((I78
g1
tp174
g30
tp175
a((I79
g1
tp176
g9
tp177
a((I80
g1
tp178
g23
tp179
a((I81
g1
tp180
S'E'
p181
tp182
a((I82
g1
tp183
g45
tp184
a((I83
g1
tp185
g142
tp186
a((I84
g1
tp187
g3
tp188
a((I85
g1
tp189
g15
tp190
a((I86
g1
tp191
g88
tp192
a((I87
g1
tp193
g88
tp194
a((I88
g1
tp195
g59
tp196
a((I89
g1
tp197
g30
tp198
a((I90
g1
tp199
g9
tp200
a((I91
g1
tp201
g45
tp202
a((I92
g1
tp203
g88
tp204
a((I93
g1
tp205
g76
tp206
a((I94
g1
tp207
g88
tp208
a((I95
g1
tp209
g23
tp210
a((I96
g1
tp211
g142
tp212
a((I97
g1
tp213
g15
tp214
a((I98
g1
tp215
g142
tp216
a((I99
g1
tp217
g42
tp218
a((I100
g1
tp219
g23
tp220
a((I101
g1
tp221
g42
tp222
a((I102
g1
tp223
g15
tp224
a((I103
g1
tp225
g95
tp226
a((I104
g1
tp227
g39
tp228
a((I105
g1
tp229
g45
tp230
a((I106
g1
tp231
g6
tp232
a((I107
g1
tp233
g95
tp234
a.