(lp0
((I1
S' '
p1
tp2
S'E'
p3
tp4
a((I2
g1
tp5
S'I'
p6
tp7
a((I3
g1
tp8
S'V'
p9
tp10
a((I4
g1
tp11
S'L'
p12
tp13
a((I5
g1
tp14
S'T'
p15
tp16
a((I6
g1
tp17
S'Q'
p18
tp19
a((I7
g1
tp20
S'S'
p21
tp22
a((I8
g1
tp23
S'P'
p24
tp25
a((I9
g1
tp26
S'A'
p27
tp28
a((I10
g1
tp29
g15
tp30
a((I11
g1
tp31
g12
tp32
a((I12
g1
tp33
g21
tp34
a((I13
g1
tp35
g12
tp36
a((I14
g1
tp37
g21
tp38
a((I15
g1
tp39
g24
tp40
a((I16
g1
tp41
S'G'
p42
tp43
a((I17
g1
tp44
g3
tp45
a((I18
g1
tp46
S'R'
p47
tp48
a((I19
g1
tp49
g27
tp50
a((I20
g1
tp51
g15
tp52
a((I21
g1
tp53
g12
tp54
a((I22
g1
tp55
g21
tp56
a((I23
g1
tp57
S'C'
p58
tp59
a((I24
g1
tp60
g47
tp61
a((I25
g1
tp62
g27
tp63
a((I26
g1
tp64
g21
tp65
a((I27
g1
tp66
g18
tp67
a((I28
g1
tp68
g21
tp69
a((I29
g1
tp70
g9
tp71
a((I30
g1
tp72
g21
tp73
a((I31
g1
tp74
g21
tp75
a((I32
g1
tp76
S'Y'
p77
tp78
a((I33
g1
tp79
g12
tp80
a((I34
g1
tp81
g27
tp82
a((I35
g1
tp83
S'W'
p84
tp85
a((I36
g1
tp86
g77
tp87
a((I37
g1
tp88
g18
tp89
a((I38
g1
tp90
g18
tp91
a((I39
g1
tp92
S'K'
p93
tp94
a((I40
g1
tp95
g24
tp96
a((I41
g1
tp97
g42
tp98
a((I42
g1
tp99
g18
tp100
a((I43
g1
tp101
g27
tp102
a((I44
g1
tp103
g24
tp104
a((I45
g1
tp105
g47
tp106
a((I46
g1
tp107
g12
tp108
a((I47
g1
tp109
g12
tp110
a((I48
g1
tp111
g6
tp112
a((I49
g1
tp113
g77
tp114
a((I50
g1
tp115
S'D'
p116
tp117
a((I51
g1
tp118
g27
tp119
a((I52
g1
tp120
g21
tp121
a((I53
g1
tp122
S'N'
p123
tp124
a((I54
g1
tp125
g47
tp126
a((I55
g1
tp127
g27
tp128
a((I56
g1
tp129
g15
tp130
a((I57
g1
tp131
g42
tp132
a((I58
g1
tp133
g6
tp134
a((I59
g1
tp135
g24
tp136
a((I60
g1
tp137
g27
tp138
a((I61
g1
tp139
g47
tp140
a((I62
g1
tp141
S'F'
p142
tp143
a((I63
g1
tp144
g21
tp145
a((I64
g1
tp146
g42
tp147
a((I65
g1
tp148
g21
tp149
a((I66
g1
tp150
g42
tp151
a((I67
g1
tp152
g21
tp153
a((I68
g1
tp154
g42
tp155
a((I69
g1
tp156
g15
tp157
a((I70
g1
tp158
g116
tp159
a((I71
g1
tp160
g142
tp161
a((I72
g1
tp162
g15
tp163
a((I73
g1
tp164
g12
tp165
a((I74
g1
tp166
g15
tp167
a((I75
g1
tp168
g6
tp169
a((I76
g1
tp170
g21
tp171
a((I77
g1
tp172
g21
tp173
a((I78
g1
tp174
g12
tp175
a((I79
g1
tp176
g3
tp177
a((I80
g1
tp178
g24
tp179
a((I81
g1
tp180
g3
tp181
a((I82
g1
tp182
g116
tp183
a((I83
g1
tp184
g142
tp185
a((I84
g1
tp186
g27
tp187
a((I85
g1
tp188
g9
tp189
a((I86
g1
tp190
g77
tp191
a((I87
g1
tp192
g77
tp193
a((I88
g1
tp194
g58
tp195
a((I89
g1
tp196
g18
tp197
a((I90
g1
tp198
g18
tp199
a((I91
g1
tp200
g47
tp201
a((I92
g1
tp202
g21
tp203
a((I93
g1
tp204
g123
tp205
a((I94
g1
tp206
g84
tp207
a((I95
g1
tp208
g24
tp209
a((I96
g1
tp210
g77
tp211
a((I97
g1
tp212
g15
tp213
a((I98
g1
tp214
g142
tp215
a((I99
g1
tp216
g42
tp217
a((I100
g1
tp218
g18
tp219
a((I101
g1
tp220
g42
tp221
a((I102
g1
tp222
g15
tp223
a((I103
g1
tp224
g93
tp225
a((I104
g1
tp226
g12
tp227
a((I105
g1
tp228
g3
tp229
a((I106
g1
tp230
g6
tp231
a((I107
g1
tp232
g93
tp233
a.