(lp0
((I1
S' '
p1
tp2
S'D'
p3
tp4
a((I2
g1
tp5
S'I'
p6
tp7
a((I3
g1
tp8
S'V'
p9
tp10
a((I4
g1
tp11
S'L'
p12
tp13
a((I5
g1
tp14
S'T'
p15
tp16
a((I6
g1
tp17
S'Q'
p18
tp19
a((I7
g1
tp20
S'S'
p21
tp22
a((I8
g1
tp23
S'P'
p24
tp25
a((I9
g1
tp26
S'A'
p27
tp28
a((I10
g1
tp29
g21
tp30
a((I11
g1
tp31
g12
tp32
a((I12
g1
tp33
g27
tp34
a((I13
g1
tp35
g9
tp36
a((I14
g1
tp37
g21
tp38
a((I15
g1
tp39
g24
tp40
a((I16
g1
tp41
S'G'
p42
tp43
a((I17
g1
tp44
g18
tp45
a((I18
g1
tp46
S'R'
p47
tp48
a((I19
g1
tp49
g27
tp50
a((I20
g1
tp51
g15
tp52
a((I21
g1
tp53
g6
tp54
a((I22
g1
tp55
g15
tp56
a((I23
g1
tp57
S'C'
p58
tp59
a((I24
g1
tp60
g47
tp61
a((I25
g1
tp62
g27
tp63
a((I26
g1
tp64
g21
tp65
a((I27
g1
tp66
S'E'
p67
tp68
a((I28
g1
tp69
g21
tp70
a((I29
g1
tp71
g9
tp72
a((I30
g1
tp73
g21
tp74
a((I30
g27
tp75
S'F'
p76
tp77
a((I30
S'B'
p78
tp79
g12
tp80
a((I30
g58
tp81
g42
tp82
a((I30
g3
tp83
g6
tp84
a((I31
g1
tp85
S'N'
p86
tp87
a((I32
g1
tp88
g12
tp89
a((I33
g1
tp90
g6
tp91
a((I34
g1
tp92
S'H'
p93
tp94
a((I35
g1
tp95
S'W'
p96
tp97
a((I36
g1
tp98
S'Y'
p99
tp100
a((I37
g1
tp101
g18
tp102
a((I38
g1
tp103
g18
tp104
a((I39
g1
tp105
S'K'
p106
tp107
a((I40
g1
tp108
g24
tp109
a((I41
g1
tp110
g42
tp111
a((I42
g1
tp112
g18
tp113
a((I43
g1
tp114
g24
tp115
a((I44
g1
tp116
g24
tp117
a((I45
g1
tp118
g106
tp119
a((I46
g1
tp120
g12
tp121
a((I47
g1
tp122
g12
tp123
a((I48
g1
tp124
g6
tp125
a((I49
g1
tp126
g99
tp127
a((I50
g1
tp128
g18
tp129
a((I51
g1
tp130
g27
tp131
a((I52
g1
tp132
g21
tp133
a((I53
g1
tp134
g86
tp135
a((I54
g1
tp136
g106
tp137
a((I55
g1
tp138
g3
tp139
a((I56
g1
tp140
g15
tp141
a((I57
g1
tp142
g42
tp143
a((I58
g1
tp144
g9
tp145
a((I59
g1
tp146
g24
tp147
a((I60
g1
tp148
g27
tp149
a((I61
g1
tp150
g47
tp151
a((I62
g1
tp152
g76
tp153
a((I63
g1
tp154
g21
tp155
a((I64
g1
tp156
g42
tp157
a((I65
g1
tp158
g21
tp159
a((I66
g1
tp160
g42
tp161
a((I67
g1
tp162
g21
tp163
a((I68
g1
tp164
g42
tp165
a((I69
g1
tp166
g15
tp167
a((I70
g1
tp168
g3
tp169
a((I71
g1
tp170
g76
tp171
a((I72
g1
tp172
g15
tp173
a((I73
g1
tp174
g12
tp175
a((I74
g1
tp176
g15
tp177
a((I75
g1
tp178
g6
tp179
a((I76
g1
tp180
g86
tp181
a((I77
g1
tp182
g24
tp183
a((I78
g1
tp184
g9
tp185
a((I79
g1
tp186
g67
tp187
a((I80
g1
tp188
g27
tp189
a((I81
g1
tp190
g86
tp191
a((I82
g1
tp192
g3
tp193
a((I83
g1
tp194
g15
tp195
a((I84
g1
tp196
g27
tp197
a((I85
g1
tp198
g86
tp199
a((I86
g1
tp200
g99
tp201
a((I87
g1
tp202
g99
tp203
a((I88
g1
tp204
g58
tp205
a((I89
g1
tp206
g12
tp207
a((I90
g1
tp208
g18
tp209
a((I91
g1
tp210
g21
tp211
a((I92
g1
tp212
g106
tp213
a((I93
g1
tp214
g86
tp215
a((I94
g1
tp216
g76
tp217
a((I95
g1
tp218
g24
tp219
a((I96
g1
tp220
g96
tp221
a((I97
g1
tp222
g15
tp223
a((I98
g1
tp224
g76
tp225
a((I99
g1
tp226
g42
tp227
a((I100
g1
tp228
g18
tp229
a((I101
g1
tp230
g42
tp231
a((I102
g1
tp232
g15
tp233
a((I103
g1
tp234
g106
tp235
a((I104
g1
tp236
g9
tp237
a((I105
g1
tp238
g67
tp239
a((I106
g1
tp240
g6
tp241
a((I107
g1
tp242
g106
tp243
a.