(lp0
((I1
S' '
p1
tp2
S'D'
p3
tp4
a((I2
g1
tp5
S'I'
p6
tp7
a((I3
g1
tp8
S'Q'
p9
tp10
a((I4
g1
tp11
S'M'
p12
tp13
a((I5
g1
tp14
g6
tp15
a((I6
g1
tp16
g9
tp17
a((I7
g1
tp18
S'S'
p19
tp20
a((I8
g1
tp21
S'P'
p22
tp23
a((I9
g1
tp24
g19
tp25
a((I10
g1
tp26
S'F'
p27
tp28
a((I11
g1
tp29
S'L'
p30
tp31
a((I12
g1
tp32
g19
tp33
a((I13
g1
tp34
S'A'
p35
tp36
a((I14
g1
tp37
g19
tp38
a((I15
g1
tp39
S'V'
p40
tp41
a((I16
g1
tp42
S'G'
p43
tp44
a((I17
g1
tp45
g3
tp46
a((I18
g1
tp47
S'R'
p48
tp49
a((I19
g1
tp50
g40
tp51
a((I20
g1
tp52
g19
tp53
a((I21
g1
tp54
g6
tp55
a((I22
g1
tp56
g6
tp57
a((I23
g1
tp58
S'C'
p59
tp60
a((I24
g1
tp61
S'W'
p62
tp63
a((I25
g1
tp64
g35
tp65
a((I26
g1
tp66
g19
tp67
a((I27
g1
tp68
S'E'
p69
tp70
a((I28
g1
tp71
g43
tp72
a((I29
g1
tp73
g6
tp74
a((I30
g1
tp75
g19
tp76
a((I31
g1
tp77
g19
tp78
a((I32
g1
tp79
S'N'
p80
tp81
a((I33
g1
tp82
g30
tp83
a((I34
g1
tp84
g35
tp85
a((I35
g1
tp86
g62
tp87
a((I36
g1
tp88
S'Y'
p89
tp90
a((I37
g1
tp91
g30
tp92
a((I38
g1
tp93
g9
tp94
a((I39
g1
tp95
S'K'
p96
tp97
a((I40
g1
tp98
g22
tp99
a((I41
g1
tp100
g43
tp101
a((I42
g1
tp102
g96
tp103
a((I43
g1
tp104
g19
tp105
a((I44
g1
tp106
g22
tp107
a((I45
g1
tp108
g96
tp109
a((I46
g1
tp110
g30
tp111
a((I47
g1
tp112
g27
tp113
a((I48
g1
tp114
g30
tp115
a((I49
g1
tp116
g89
tp117
a((I50
g1
tp118
g3
tp119
a((I51
g1
tp120
g35
tp121
a((I52
g1
tp122
g96
tp123
a((I53
g1
tp124
g3
tp125
a((I54
g1
tp126
g30
tp127
a((I55
g1
tp128
S'H'
p129
tp130
a((I56
g1
tp131
g22
tp132
a((I57
g1
tp133
g43
tp134
a((I58
g1
tp135
g40
tp136
a((I59
g1
tp137
g19
tp138
a((I60
g1
tp139
g19
tp140
a((I61
g1
tp141
g48
tp142
a((I62
g1
tp143
g27
tp144
a((I63
g1
tp145
g19
tp146
a((I64
g1
tp147
g43
tp148
a((I65
g1
tp149
g48
tp150
a((I66
g1
tp151
g43
tp152
a((I67
g1
tp153
g19
tp154
a((I68
g1
tp155
g43
tp156
a((I69
g1
tp157
S'T'
p158
tp159
a((I70
g1
tp160
g3
tp161
a((I71
g1
tp162
g27
tp163
a((I72
g1
tp164
g158
tp165
a((I73
g1
tp166
g30
tp167
a((I74
g1
tp168
g158
tp169
a((I75
g1
tp170
g6
tp171
a((I76
g1
tp172
g6
tp173
a((I77
g1
tp174
g19
tp175
a((I78
g1
tp176
g30
tp177
a((I79
g1
tp178
g96
tp179
a((I80
g1
tp180
g22
tp181
a((I81
g1
tp182
g69
tp183
a((I82
g1
tp184
g3
tp185
a((I83
g1
tp186
g27
tp187
a((I84
g1
tp188
g35
tp189
a((I85
g1
tp190
g35
tp191
a((I86
g1
tp192
g89
tp193
a((I87
g1
tp194
g89
tp195
a((I88
g1
tp196
g59
tp197
a((I89
g1
tp198
g96
tp199
a((I90
g1
tp200
g9
tp201
a((I91
g1
tp202
g3
tp203
a((I92
g1
tp204
g27
tp205
a((I93
g1
tp206
g19
tp207
a((I94
g1
tp208
g89
tp209
a((I95
g1
tp210
g22
tp211
a((I96
g1
tp212
g30
tp213
a((I97
g1
tp214
g158
tp215
a((I98
g1
tp216
g27
tp217
a((I99
g1
tp218
g43
tp219
a((I100
g1
tp220
g43
tp221
a((I101
g1
tp222
g43
tp223
a((I102
g1
tp224
g158
tp225
a((I103
g1
tp226
g96
tp227
a((I104
g1
tp228
g40
tp229
a((I105
g1
tp230
g69
tp231
a((I106
g1
tp232
g6
tp233
a((I107
g1
tp234
g96
tp235
a.