(lp0
((I1
S' '
p1
tp2
S'D'
p3
tp4
a((I2
g1
tp5
S'I'
p6
tp7
a((I3
g1
tp8
S'V'
p9
tp10
a((I4
g1
tp11
S'M'
p12
tp13
a((I5
g1
tp14
S'T'
p15
tp16
a((I6
g1
tp17
S'Q'
p18
tp19
a((I7
g1
tp20
g15
tp21
a((I8
g1
tp22
S'P'
p23
tp24
a((I9
g1
tp25
S'L'
p26
tp27
a((I10
g1
tp28
S'S'
p29
tp30
a((I11
g1
tp31
g26
tp32
a((I12
g1
tp33
g23
tp34
a((I13
g1
tp35
g9
tp36
a((I14
g1
tp37
g15
tp38
a((I15
g1
tp39
g23
tp40
a((I16
g1
tp41
S'G'
p42
tp43
a((I17
g1
tp44
S'E'
p45
tp46
a((I18
g1
tp47
g23
tp48
a((I19
g1
tp49
S'A'
p50
tp51
a((I20
g1
tp52
g29
tp53
a((I21
g1
tp54
g6
tp55
a((I22
g1
tp56
g29
tp57
a((I23
g1
tp58
S'C'
p59
tp60
a((I24
g1
tp61
S'R'
p62
tp63
a((I25
g1
tp64
g29
tp65
a((I26
g1
tp66
g29
tp67
a((I27
g1
tp68
g18
tp69
a((I28
g1
tp70
g29
tp71
a((I29
g1
tp72
g26
tp73
a((I30
g1
tp74
g26
tp75
a((I30
g50
tp76
g3
tp77
a((I30
S'B'
p78
tp79
g29
tp80
a((I30
g59
tp81
g3
tp82
a((I30
g3
tp83
g3
tp84
a((I30
g45
tp85
g42
tp86
a((I30
S'F'
p87
tp88
S'N'
p89
tp90
a((I31
g1
tp91
g15
tp92
a((I32
g1
tp93
S'Y'
p94
tp95
a((I33
g1
tp96
g26
tp97
a((I34
g1
tp98
g3
tp99
a((I35
g1
tp100
S'W'
p101
tp102
a((I36
g1
tp103
g94
tp104
a((I37
g1
tp105
g26
tp106
a((I38
g1
tp107
g18
tp108
a((I39
g1
tp109
S'K'
p110
tp111
a((I40
g1
tp112
g23
tp113
a((I41
g1
tp114
g42
tp115
a((I42
g1
tp116
g18
tp117
a((I43
g1
tp118
g29
tp119
a((I44
g1
tp120
g23
tp121
a((I45
g1
tp122
g18
tp123
a((I46
g1
tp124
g26
tp125
a((I47
g1
tp126
g26
tp127
a((I48
g1
tp128
g6
tp129
a((I49
g1
tp130
g94
tp131
a((I50
g1
tp132
g15
tp133
a((I51
g1
tp134
g26
tp135
a((I52
g1
tp136
g29
tp137
a((I53
g1
tp138
g94
tp139
a((I54
g1
tp140
g62
tp141
a((I55
g1
tp142
g50
tp143
a((I56
g1
tp144
g29
tp145
a((I57
g1
tp146
g42
tp147
a((I58
g1
tp148
g9
tp149
a((I59
g1
tp150
g23
tp151
a((I60
g1
tp152
g3
tp153
a((I61
g1
tp154
g62
tp155
a((I62
g1
tp156
g87
tp157
a((I63
g1
tp158
g29
tp159
a((I64
g1
tp160
g42
tp161
a((I65
g1
tp162
g29
tp163
a((I66
g1
tp164
g42
tp165
a((I67
g1
tp166
g29
tp167
a((I68
g1
tp168
g42
tp169
a((I69
g1
tp170
g15
tp171
a((I70
g1
tp172
g3
tp173
a((I71
g1
tp174
g87
tp175
a((I72
g1
tp176
g15
tp177
a((I73
g1
tp178
g26
tp179
a((I74
g1
tp180
g110
tp181
a((I75
g1
tp182
g6
tp183
a((I76
g1
tp184
g29
tp185
a((I77
g1
tp186
g62
tp187
a((I78
g1
tp188
g9
tp189
a((I79
g1
tp190
g45
tp191
a((I80
g1
tp192
g50
tp193
a((I81
g1
tp194
g45
tp195
a((I82
g1
tp196
g3
tp197
a((I83
g1
tp198
g9
tp199
a((I84
g1
tp200
g42
tp201
a((I85
g1
tp202
g9
tp203
a((I86
g1
tp204
g94
tp205
a((I87
g1
tp206
g94
tp207
a((I88
g1
tp208
g59
tp209
a((I89
g1
tp210
g12
tp211
a((I90
g1
tp212
g18
tp213
a((I91
g1
tp214
g62
tp215
a((I92
g1
tp216
g6
tp217
a((I93
g1
tp218
g45
tp219
a((I94
g1
tp220
g87
tp221
a((I95
g1
tp222
g23
tp223
a((I96
g1
tp224
g94
tp225
a((I97
g1
tp226
g15
tp227
a((I98
g1
tp228
g87
tp229
a((I99
g1
tp230
g42
tp231
a((I100
g1
tp232
g18
tp233
a((I101
g1
tp234
g42
tp235
a((I102
g1
tp236
g15
tp237
a((I103
g1
tp238
g110
tp239
a((I104
g1
tp240
g26
tp241
a((I105
g1
tp242
g45
tp243
a((I106
g1
tp244
g6
tp245
a((I107
g1
tp246
g110
tp247
a.