(lp0
((I1
S' '
p1
tp2
S'V'
p3
tp4
a((I2
g1
tp5
S'I'
p6
tp7
a((I3
g1
tp8
S'W'
p9
tp10
a((I4
g1
tp11
S'M'
p12
tp13
a((I5
g1
tp14
S'T'
p15
tp16
a((I6
g1
tp17
S'Q'
p18
tp19
a((I7
g1
tp20
S'S'
p21
tp22
a((I8
g1
tp23
S'P'
p24
tp25
a((I9
g1
tp26
g21
tp27
a((I10
g1
tp28
S'L'
p29
tp30
a((I11
g1
tp31
g29
tp32
a((I12
g1
tp33
g21
tp34
a((I13
g1
tp35
S'A'
p36
tp37
a((I14
g1
tp38
g21
tp39
a((I15
g1
tp40
g15
tp41
a((I16
g1
tp42
S'G'
p43
tp44
a((I17
g1
tp45
S'D'
p46
tp47
a((I18
g1
tp48
S'R'
p49
tp50
a((I19
g1
tp51
g3
tp52
a((I20
g1
tp53
g15
tp54
a((I21
g1
tp55
g6
tp56
a((I22
g1
tp57
g21
tp58
a((I23
g1
tp59
S'C'
p60
tp61
a((I24
g1
tp62
g49
tp63
a((I25
g1
tp64
g12
tp65
a((I26
g1
tp66
g21
tp67
a((I27
g1
tp68
g18
tp69
a((I28
g1
tp70
g43
tp71
a((I29
g1
tp72
g6
tp73
a((I30
g1
tp74
g21
tp75
a((I31
g1
tp76
g21
tp77
a((I32
g1
tp78
S'Y'
p79
tp80
a((I33
g1
tp81
g29
tp82
a((I34
g1
tp83
g36
tp84
a((I35
g1
tp85
g9
tp86
a((I36
g1
tp87
g79
tp88
a((I37
g1
tp89
g18
tp90
a((I38
g1
tp91
g18
tp92
a((I39
g1
tp93
S'K'
p94
tp95
a((I40
g1
tp96
g24
tp97
a((I41
g1
tp98
g43
tp99
a((I42
g1
tp100
g94
tp101
a((I43
g1
tp102
g36
tp103
a((I44
g1
tp104
g24
tp105
a((I45
g1
tp106
S'E'
p107
tp108
a((I46
g1
tp109
g29
tp110
a((I47
g1
tp111
g29
tp112
a((I48
g1
tp113
g6
tp114
a((I49
g1
tp115
g79
tp116
a((I50
g1
tp117
g36
tp118
a((I51
g1
tp119
g36
tp120
a((I52
g1
tp121
g21
tp122
a((I53
g1
tp123
g15
tp124
a((I54
g1
tp125
g29
tp126
a((I55
g1
tp127
g18
tp128
a((I56
g1
tp129
g21
tp130
a((I57
g1
tp131
g43
tp132
a((I58
g1
tp133
g3
tp134
a((I59
g1
tp135
g24
tp136
a((I60
g1
tp137
g21
tp138
a((I61
g1
tp139
g49
tp140
a((I62
g1
tp141
S'F'
p142
tp143
a((I63
g1
tp144
g21
tp145
a((I64
g1
tp146
g43
tp147
a((I65
g1
tp148
g21
tp149
a((I66
g1
tp150
g43
tp151
a((I67
g1
tp152
g21
tp153
a((I68
g1
tp154
g43
tp155
a((I69
g1
tp156
g15
tp157
a((I70
g1
tp158
g46
tp159
a((I71
g1
tp160
g142
tp161
a((I72
g1
tp162
g15
tp163
a((I73
g1
tp164
g29
tp165
a((I74
g1
tp166
g15
tp167
a((I75
g1
tp168
g6
tp169
a((I76
g1
tp170
g21
tp171
a((I77
g1
tp172
g60
tp173
a((I78
g1
tp174
g29
tp175
a((I79
g1
tp176
g18
tp177
a((I80
g1
tp178
g21
tp179
a((I81
g1
tp180
g107
tp181
a((I82
g1
tp182
g46
tp183
a((I83
g1
tp184
g142
tp185
a((I84
g1
tp186
g36
tp187
a((I85
g1
tp188
g15
tp189
a((I86
g1
tp190
g79
tp191
a((I87
g1
tp192
g79
tp193
a((I88
g1
tp194
g60
tp195
a((I89
g1
tp196
g18
tp197
a((I90
g1
tp198
g18
tp199
a((I91
g1
tp200
g79
tp201
a((I92
g1
tp202
g79
tp203
a((I93
g1
tp204
g21
tp205
a((I94
g1
tp206
g142
tp207
a((I95
g1
tp208
g24
tp209
a((I96
g1
tp210
g142
tp211
a((I97
g1
tp212
g15
tp213
a((I98
g1
tp214
g142
tp215
a((I99
g1
tp216
g43
tp217
a((I100
g1
tp218
g24
tp219
a((I101
g1
tp220
g43
tp221
a((I102
g1
tp222
g15
tp223
a((I103
g1
tp224
g94
tp225
a((I104
g1
tp226
g3
tp227
a((I105
g1
tp228
g46
tp229
a((I106
g1
tp230
g6
tp231
a((I107
g1
tp232
g94
tp233
a.