(lp0
((I1
S' '
p1
tp2
S'D'
p3
tp4
a((I2
g1
tp5
S'I'
p6
tp7
a((I3
g1
tp8
S'V'
p9
tp10
a((I4
g1
tp11
S'M'
p12
tp13
a((I5
g1
tp14
S'T'
p15
tp16
a((I6
g1
tp17
S'Q'
p18
tp19
a((I7
g1
tp20
S'S'
p21
tp22
a((I8
g1
tp23
S'P'
p24
tp25
a((I9
g1
tp26
g3
tp27
a((I10
g1
tp28
g21
tp29
a((I11
g1
tp30
S'L'
p31
tp32
a((I12
g1
tp33
S'A'
p34
tp35
a((I13
g1
tp36
g9
tp37
a((I14
g1
tp38
g21
tp39
a((I15
g1
tp40
g31
tp41
a((I16
g1
tp42
S'G'
p43
tp44
a((I17
g1
tp45
S'E'
p46
tp47
a((I18
g1
tp48
S'R'
p49
tp50
a((I19
g1
tp51
g34
tp52
a((I20
g1
tp53
g15
tp54
a((I21
g1
tp55
g6
tp56
a((I22
g1
tp57
S'N'
p58
tp59
a((I23
g1
tp60
S'C'
p61
tp62
a((I24
g1
tp63
S'K'
p64
tp65
a((I25
g1
tp66
g21
tp67
a((I26
g1
tp68
g21
tp69
a((I27
g1
tp70
g18
tp71
a((I28
g1
tp72
g21
tp73
a((I29
g1
tp74
g9
tp75
a((I30
g1
tp76
g31
tp77
a((I30
g34
tp78
S'Y'
p79
tp80
a((I30
S'B'
p81
tp82
g21
tp83
a((I30
g61
tp84
g21
tp85
a((I30
g3
tp86
g58
tp87
a((I30
g46
tp88
g58
tp89
a((I30
S'F'
p90
tp91
g64
tp92
a((I31
g1
tp93
g58
tp94
a((I32
g1
tp95
g79
tp96
a((I33
g1
tp97
g31
tp98
a((I34
g1
tp99
g34
tp100
a((I35
g1
tp101
S'W'
p102
tp103
a((I36
g1
tp104
g79
tp105
a((I37
g1
tp106
g18
tp107
a((I38
g1
tp108
g18
tp109
a((I39
g1
tp110
g64
tp111
a((I40
g1
tp112
g24
tp113
a((I41
g1
tp114
g43
tp115
a((I42
g1
tp116
g18
tp117
a((I43
g1
tp118
g24
tp119
a((I44
g1
tp120
g24
tp121
a((I45
g1
tp122
g64
tp123
a((I46
g1
tp124
g31
tp125
a((I47
g1
tp126
g31
tp127
a((I48
g1
tp128
g6
tp129
a((I49
g1
tp130
g79
tp131
a((I50
g1
tp132
g102
tp133
a((I51
g1
tp134
g34
tp135
a((I52
g1
tp136
g21
tp137
a((I53
g1
tp138
g15
tp139
a((I54
g1
tp140
g49
tp141
a((I55
g1
tp142
g46
tp143
a((I56
g1
tp144
g21
tp145
a((I57
g1
tp146
g43
tp147
a((I58
g1
tp148
g9
tp149
a((I59
g1
tp150
g24
tp151
a((I60
g1
tp152
g3
tp153
a((I61
g1
tp154
g49
tp155
a((I62
g1
tp156
g90
tp157
a((I63
g1
tp158
g21
tp159
a((I64
g1
tp160
g43
tp161
a((I65
g1
tp162
g21
tp163
a((I66
g1
tp164
g43
tp165
a((I67
g1
tp166
g21
tp167
a((I68
g1
tp168
g43
tp169
a((I69
g1
tp170
g15
tp171
a((I70
g1
tp172
g3
tp173
a((I71
g1
tp174
g90
tp175
a((I72
g1
tp176
g15
tp177
a((I73
g1
tp178
g31
tp179
a((I74
g1
tp180
g15
tp181
a((I75
g1
tp182
g6
tp183
a((I76
g1
tp184
g21
tp185
a((I77
g1
tp186
g21
tp187
a((I78
g1
tp188
g31
tp189
a((I79
g1
tp190
g18
tp191
a((I80
g1
tp192
g34
tp193
a((I81
g1
tp194
g46
tp195
a((I82
g1
tp196
g3
tp197
a((I83
g1
tp198
g9
tp199
a((I84
g1
tp200
g34
tp201
a((I85
g1
tp202
g9
tp203
a((I86
g1
tp204
g79
tp205
a((I87
g1
tp206
g79
tp207
a((I88
g1
tp208
g61
tp209
a((I89
g1
tp210
g18
tp211
a((I90
g1
tp212
g18
tp213
a((I91
g1
tp214
g79
tp215
a((I92
g1
tp216
g79
tp217
a((I93
g1
tp218
g21
tp219
a((I94
g1
tp220
g15
tp221
a((I95
g1
tp222
g24
tp223
a((I96
g1
tp224
g102
tp225
a((I97
g1
tp226
g15
tp227
a((I98
g1
tp228
g90
tp229
a((I99
g1
tp230
g43
tp231
a((I100
g1
tp232
g18
tp233
a((I101
g1
tp234
g43
tp235
a((I102
g1
tp236
g15
tp237
a((I103
g1
tp238
g64
tp239
a((I104
g1
tp240
g9
tp241
a((I105
g1
tp242
g46
tp243
a((I106
g1
tp244
g6
tp245
a((I107
g1
tp246
g64
tp247
a.