(lp0
((I1
S' '
p1
tp2
S'D'
p3
tp4
a((I2
g1
tp5
S'I'
p6
tp7
a((I3
g1
tp8
S'V'
p9
tp10
a((I4
g1
tp11
S'M'
p12
tp13
a((I5
g1
tp14
S'T'
p15
tp16
a((I6
g1
tp17
S'Q'
p18
tp19
a((I7
g1
tp20
g15
tp21
a((I8
g1
tp22
S'P'
p23
tp24
a((I9
g1
tp25
S'L'
p26
tp27
a((I10
g1
tp28
S'S'
p29
tp30
a((I11
g1
tp31
g26
tp32
a((I12
g1
tp33
g29
tp34
a((I13
g1
tp35
g9
tp36
a((I14
g1
tp37
g15
tp38
a((I15
g1
tp39
g23
tp40
a((I16
g1
tp41
S'G'
p42
tp43
a((I17
g1
tp44
g18
tp45
a((I18
g1
tp46
g23
tp47
a((I19
g1
tp48
S'A'
p49
tp50
a((I20
g1
tp51
g29
tp52
a((I21
g1
tp53
g6
tp54
a((I22
g1
tp55
g29
tp56
a((I23
g1
tp57
S'C'
p58
tp59
a((I24
g1
tp60
S'K'
p61
tp62
a((I25
g1
tp63
g29
tp64
a((I26
g1
tp65
g29
tp66
a((I27
g1
tp67
g18
tp68
a((I28
g1
tp69
g29
tp70
a((I29
g1
tp71
g26
tp72
a((I30
g1
tp73
g26
tp74
a((I30
g49
tp75
S'H'
p76
tp77
a((I30
S'B'
p78
tp79
g29
tp80
a((I30
g58
tp81
g3
tp82
a((I30
g3
tp83
g42
tp84
a((I30
S'E'
p85
tp86
g61
tp87
a((I31
g1
tp88
g15
tp89
a((I32
g1
tp90
S'Y'
p91
tp92
a((I33
g1
tp93
g26
tp94
a((I34
g1
tp95
g91
tp96
a((I35
g1
tp97
S'W'
p98
tp99
a((I36
g1
tp100
g91
tp101
a((I37
g1
tp102
g26
tp103
a((I38
g1
tp104
g18
tp105
a((I39
g1
tp106
g61
tp107
a((I40
g1
tp108
g23
tp109
a((I41
g1
tp110
g42
tp111
a((I42
g1
tp112
g18
tp113
a((I43
g1
tp114
g29
tp115
a((I44
g1
tp116
g23
tp117
a((I45
g1
tp118
g18
tp119
a((I46
g1
tp120
g26
tp121
a((I47
g1
tp122
g26
tp123
a((I48
g1
tp124
g6
tp125
a((I49
g1
tp126
g91
tp127
a((I50
g1
tp128
g85
tp129
a((I51
g1
tp130
g9
tp131
a((I52
g1
tp132
g29
tp133
a((I53
g1
tp134
g29
tp135
a((I54
g1
tp136
S'R'
p137
tp138
a((I55
g1
tp139
S'F'
p140
tp141
a((I56
g1
tp142
g29
tp143
a((I57
g1
tp144
g42
tp145
a((I58
g1
tp146
g9
tp147
a((I59
g1
tp148
g23
tp149
a((I60
g1
tp150
g3
tp151
a((I61
g1
tp152
g137
tp153
a((I62
g1
tp154
g140
tp155
a((I63
g1
tp156
g29
tp157
a((I64
g1
tp158
g42
tp159
a((I65
g1
tp160
g29
tp161
a((I66
g1
tp162
g42
tp163
a((I67
g1
tp164
g29
tp165
a((I68
g1
tp166
g42
tp167
a((I69
g1
tp168
g15
tp169
a((I70
g1
tp170
g3
tp171
a((I71
g1
tp172
g140
tp173
a((I72
g1
tp174
g15
tp175
a((I73
g1
tp176
g26
tp177
a((I74
g1
tp178
g61
tp179
a((I75
g1
tp180
g6
tp181
a((I76
g1
tp182
g29
tp183
a((I77
g1
tp184
g137
tp185
a((I78
g1
tp186
g9
tp187
a((I79
g1
tp188
g85
tp189
a((I80
g1
tp190
g49
tp191
a((I81
g1
tp192
g85
tp193
a((I82
g1
tp194
g3
tp195
a((I83
g1
tp196
g9
tp197
a((I84
g1
tp198
g42
tp199
a((I85
g1
tp200
g9
tp201
a((I86
g1
tp202
g91
tp203
a((I87
g1
tp204
g91
tp205
a((I88
g1
tp206
g12
tp207
a((I89
g1
tp208
g18
tp209
a((I90
g1
tp210
g42
tp211
a((I91
g1
tp212
g6
tp213
a((I92
g1
tp214
g76
tp215
a((I93
g1
tp216
g26
tp217
a((I94
g1
tp218
g23
tp219
a((I96
g1
tp220
g6
tp221
a((I97
g1
tp222
g15
tp223
a((I98
g1
tp224
g140
tp225
a((I99
g1
tp226
g42
tp227
a((I100
g1
tp228
g18
tp229
a((I101
g1
tp230
g42
tp231
a((I102
g1
tp232
g15
tp233
a((I103
g1
tp234
g137
tp235
a((I104
g1
tp236
g26
tp237
a((I105
g1
tp238
g85
tp239
a((I106
g1
tp240
g6
tp241
a((I107
g1
tp242
g61
tp243
a.