(lp0
((I1
S' '
p1
tp2
S'A'
p3
tp4
a((I2
g1
tp5
S'I'
p6
tp7
a((I3
g1
tp8
S'R'
p9
tp10
a((I4
g1
tp11
S'M'
p12
tp13
a((I5
g1
tp14
S'T'
p15
tp16
a((I6
g1
tp17
S'Q'
p18
tp19
a((I7
g1
tp20
S'S'
p21
tp22
a((I8
g1
tp23
S'P'
p24
tp25
a((I9
g1
tp26
S'F'
p27
tp28
a((I10
g1
tp29
g21
tp30
a((I11
g1
tp31
S'L'
p32
tp33
a((I12
g1
tp34
g21
tp35
a((I13
g1
tp36
g3
tp37
a((I14
g1
tp38
g21
tp39
a((I15
g1
tp40
S'V'
p41
tp42
a((I16
g1
tp43
S'G'
p44
tp45
a((I17
g1
tp46
S'D'
p47
tp48
a((I18
g1
tp49
g9
tp50
a((I19
g1
tp51
g41
tp52
a((I20
g1
tp53
g15
tp54
a((I21
g1
tp55
g6
tp56
a((I22
g1
tp57
g15
tp58
a((I23
g1
tp59
S'C'
p60
tp61
a((I24
g1
tp62
S'W'
p63
tp64
a((I25
g1
tp65
g3
tp66
a((I26
g1
tp67
g21
tp68
a((I27
g1
tp69
g18
tp70
a((I28
g1
tp71
g44
tp72
a((I29
g1
tp73
g6
tp74
a((I30
g1
tp75
g21
tp76
a((I31
g1
tp77
g21
tp78
a((I32
g1
tp79
S'Y'
p80
tp81
a((I33
g1
tp82
g32
tp83
a((I34
g1
tp84
g3
tp85
a((I35
g1
tp86
g63
tp87
a((I36
g1
tp88
g80
tp89
a((I37
g1
tp90
g18
tp91
a((I38
g1
tp92
g18
tp93
a((I39
g1
tp94
S'K'
p95
tp96
a((I40
g1
tp97
g24
tp98
a((I41
g1
tp99
g3
tp100
a((I42
g1
tp101
g95
tp102
a((I43
g1
tp103
g3
tp104
a((I44
g1
tp105
g24
tp106
a((I45
g1
tp107
g95
tp108
a((I46
g1
tp109
g32
tp110
a((I47
g1
tp111
g27
tp112
a((I48
g1
tp113
g6
tp114
a((I49
g1
tp115
g80
tp116
a((I50
g1
tp117
g80
tp118
a((I51
g1
tp119
g3
tp120
a((I52
g1
tp121
g21
tp122
a((I53
g1
tp123
g21
tp124
a((I54
g1
tp125
g32
tp126
a((I55
g1
tp127
g18
tp128
a((I56
g1
tp129
g21
tp130
a((I57
g1
tp131
g44
tp132
a((I58
g1
tp133
g41
tp134
a((I59
g1
tp135
g24
tp136
a((I60
g1
tp137
g21
tp138
a((I61
g1
tp139
g9
tp140
a((I62
g1
tp141
g27
tp142
a((I63
g1
tp143
g21
tp144
a((I64
g1
tp145
g44
tp146
a((I65
g1
tp147
g21
tp148
a((I66
g1
tp149
g44
tp150
a((I67
g1
tp151
g21
tp152
a((I68
g1
tp153
g44
tp154
a((I69
g1
tp155
g15
tp156
a((I70
g1
tp157
g47
tp158
a((I71
g1
tp159
g80
tp160
a((I72
g1
tp161
g15
tp162
a((I73
g1
tp163
g32
tp164
a((I74
g1
tp165
g15
tp166
a((I75
g1
tp167
g6
tp168
a((I76
g1
tp169
g21
tp170
a((I77
g1
tp171
g21
tp172
a((I78
g1
tp173
g32
tp174
a((I79
g1
tp175
g18
tp176
a((I80
g1
tp177
g24
tp178
a((I81
g1
tp179
S'E'
p180
tp181
a((I82
g1
tp182
g47
tp183
a((I83
g1
tp184
g27
tp185
a((I84
g1
tp186
g3
tp187
a((I85
g1
tp188
g15
tp189
a((I86
g1
tp190
g80
tp191
a((I87
g1
tp192
g80
tp193
a((I88
g1
tp194
g60
tp195
a((I89
g1
tp196
g18
tp197
a((I90
g1
tp198
g18
tp199
a((I91
g1
tp200
g80
tp201
a((I92
g1
tp202
g80
tp203
a((I93
g1
tp204
g21
tp205
a((I94
g1
tp206
g15
tp207
a((I95
g1
tp208
g24
tp209
a((I96
g1
tp210
g27
tp211
a((I97
g1
tp212
g15
tp213
a((I98
g1
tp214
g27
tp215
a((I99
g1
tp216
g44
tp217
a((I100
g1
tp218
g24
tp219
a((I101
g1
tp220
g44
tp221
a((I102
g1
tp222
g15
tp223
a((I103
g1
tp224
g95
tp225
a((I104
g1
tp226
g41
tp227
a((I105
g1
tp228
g47
tp229
a((I106
g1
tp230
g6
tp231
a((I107
g1
tp232
g95
tp233
a.