(lp0
((I1
S' '
p1
tp2
S'E'
p3
tp4
a((I2
g1
tp5
S'I'
p6
tp7
a((I3
g1
tp8
S'V'
p9
tp10
a((I4
g1
tp11
S'M'
p12
tp13
a((I5
g1
tp14
S'T'
p15
tp16
a((I6
g1
tp17
S'Q'
p18
tp19
a((I7
g1
tp20
S'S'
p21
tp22
a((I8
g1
tp23
S'P'
p24
tp25
a((I9
g1
tp26
g24
tp27
a((I10
g1
tp28
g15
tp29
a((I11
g1
tp30
S'L'
p31
tp32
a((I12
g1
tp33
g21
tp34
a((I13
g1
tp35
g31
tp36
a((I14
g1
tp37
g21
tp38
a((I15
g1
tp39
g24
tp40
a((I16
g1
tp41
S'G'
p42
tp43
a((I17
g1
tp44
g3
tp45
a((I18
g1
tp46
S'R'
p47
tp48
a((I19
g1
tp49
g9
tp50
a((I20
g1
tp51
g15
tp52
a((I21
g1
tp53
g31
tp54
a((I22
g1
tp55
g21
tp56
a((I23
g1
tp57
S'C'
p58
tp59
a((I24
g1
tp60
g47
tp61
a((I25
g1
tp62
S'A'
p63
tp64
a((I26
g1
tp65
g21
tp66
a((I27
g1
tp67
g18
tp68
a((I28
g1
tp69
g21
tp70
a((I29
g1
tp71
g9
tp72
a((I30
g1
tp73
g21
tp74
a((I30
g63
tp75
g21
tp76
a((I31
g1
tp77
g21
tp78
a((I32
g1
tp79
S'Y'
p80
tp81
a((I33
g1
tp82
g31
tp83
a((I34
g1
tp84
g15
tp85
a((I35
g1
tp86
S'W'
p87
tp88
a((I36
g1
tp89
g80
tp90
a((I37
g1
tp91
g18
tp92
a((I38
g1
tp93
g18
tp94
a((I39
g1
tp95
S'K'
p96
tp97
a((I40
g1
tp98
g24
tp99
a((I41
g1
tp100
g42
tp101
a((I42
g1
tp102
g18
tp103
a((I43
g1
tp104
g63
tp105
a((I44
g1
tp106
g24
tp107
a((I45
g1
tp108
g47
tp109
a((I46
g1
tp110
g31
tp111
a((I47
g1
tp112
g31
tp113
a((I48
g1
tp114
g6
tp115
a((I49
g1
tp116
g80
tp117
a((I50
g1
tp118
g42
tp119
a((I51
g1
tp120
g63
tp121
a((I52
g1
tp122
g21
tp123
a((I53
g1
tp124
g15
tp125
a((I54
g1
tp126
g47
tp127
a((I55
g1
tp128
g63
tp129
a((I56
g1
tp130
g15
tp131
a((I57
g1
tp132
g21
tp133
a((I58
g1
tp134
g6
tp135
a((I59
g1
tp136
g24
tp137
a((I60
g1
tp138
g63
tp139
a((I61
g1
tp140
g47
tp141
a((I62
g1
tp142
S'F'
p143
tp144
a((I63
g1
tp145
g21
tp146
a((I64
g1
tp147
g42
tp148
a((I65
g1
tp149
g21
tp150
a((I66
g1
tp151
g42
tp152
a((I67
g1
tp153
g21
tp154
a((I68
g1
tp155
g42
tp156
a((I69
g1
tp157
g15
tp158
a((I70
g1
tp159
S'D'
p160
tp161
a((I71
g1
tp162
g143
tp163
a((I72
g1
tp164
g15
tp165
a((I73
g1
tp166
g31
tp167
a((I74
g1
tp168
g15
tp169
a((I75
g1
tp170
g6
tp171
a((I76
g1
tp172
g21
tp173
a((I77
g1
tp174
g21
tp175
a((I78
g1
tp176
g31
tp177
a((I79
g1
tp178
g18
tp179
a((I80
g1
tp180
g24
tp181
a((I81
g1
tp182
g3
tp183
a((I82
g1
tp184
g160
tp185
a((I83
g1
tp186
g143
tp187
a((I84
g1
tp188
g63
tp189
a((I85
g1
tp190
g9
tp191
a((I86
g1
tp192
g80
tp193
a((I87
g1
tp194
g80
tp195
a((I88
g1
tp196
g58
tp197
a((I89
g1
tp198
g18
tp199
a((I90
g1
tp200
g18
tp201
a((I91
g1
tp202
g160
tp203
a((I92
g1
tp204
S'H'
p205
tp206
a((I93
g1
tp207
S'N'
p208
tp209
a((I94
g1
tp210
g31
tp211
a((I95
g1
tp212
g24
tp213
a((I96
g1
tp214
g6
tp215
a((I97
g1
tp216
g15
tp217
a((I98
g1
tp218
g143
tp219
a((I99
g1
tp220
g42
tp221
a((I100
g1
tp222
g18
tp223
a((I101
g1
tp224
g42
tp225
a((I102
g1
tp226
g15
tp227
a((I103
g1
tp228
g47
tp229
a((I104
g1
tp230
g31
tp231
a((I105
g1
tp232
g3
tp233
a((I106
g1
tp234
g6
tp235
a((I107
g1
tp236
g96
tp237
a.