(lp0
((I1
S' '
p1
tp2
S'A'
p3
tp4
a((I2
g1
tp5
S'I'
p6
tp7
a((I3
g1
tp8
S'Q'
p9
tp10
a((I4
g1
tp11
S'L'
p12
tp13
a((I5
g1
tp14
S'T'
p15
tp16
a((I6
g1
tp17
g9
tp18
a((I7
g1
tp19
S'S'
p20
tp21
a((I8
g1
tp22
S'P'
p23
tp24
a((I9
g1
tp25
g20
tp26
a((I10
g1
tp27
g20
tp28
a((I11
g1
tp29
g12
tp30
a((I12
g1
tp31
g20
tp32
a((I13
g1
tp33
g3
tp34
a((I14
g1
tp35
g20
tp36
a((I15
g1
tp37
S'V'
p38
tp39
a((I16
g1
tp40
S'G'
p41
tp42
a((I17
g1
tp43
S'D'
p44
tp45
a((I18
g1
tp46
S'R'
p47
tp48
a((I19
g1
tp49
g38
tp50
a((I20
g1
tp51
g15
tp52
a((I21
g1
tp53
g6
tp54
a((I22
g1
tp55
g15
tp56
a((I23
g1
tp57
S'C'
p58
tp59
a((I24
g1
tp60
g47
tp61
a((I25
g1
tp62
g3
tp63
a((I26
g1
tp64
g20
tp65
a((I27
g1
tp66
g9
tp67
a((I28
g1
tp68
g41
tp69
a((I29
g1
tp70
g6
tp71
a((I30
g1
tp72
g20
tp73
a((I31
g1
tp74
g20
tp75
a((I32
g1
tp76
g3
tp77
a((I33
g1
tp78
g12
tp79
a((I34
g1
tp80
g3
tp81
a((I35
g1
tp82
S'W'
p83
tp84
a((I36
g1
tp85
S'Y'
p86
tp87
a((I37
g1
tp88
g9
tp89
a((I38
g1
tp90
g9
tp91
a((I39
g1
tp92
S'K'
p93
tp94
a((I40
g1
tp95
g23
tp96
a((I41
g1
tp97
g41
tp98
a((I42
g1
tp99
g93
tp100
a((I43
g1
tp101
g3
tp102
a((I44
g1
tp103
g23
tp104
a((I45
g1
tp105
g93
tp106
a((I46
g1
tp107
g12
tp108
a((I47
g1
tp109
g12
tp110
a((I48
g1
tp111
g6
tp112
a((I49
g1
tp113
g86
tp114
a((I50
g1
tp115
g44
tp116
a((I51
g1
tp117
g3
tp118
a((I52
g1
tp119
g20
tp120
a((I53
g1
tp121
g20
tp122
a((I54
g1
tp123
g12
tp124
a((I55
g1
tp125
S'E'
p126
tp127
a((I56
g1
tp128
g20
tp129
a((I57
g1
tp130
g41
tp131
a((I58
g1
tp132
g38
tp133
a((I59
g1
tp134
g23
tp135
a((I60
g1
tp136
g20
tp137
a((I61
g1
tp138
g47
tp139
a((I62
g1
tp140
S'F'
p141
tp142
a((I63
g1
tp143
g20
tp144
a((I64
g1
tp145
g41
tp146
a((I65
g1
tp147
g20
tp148
a((I66
g1
tp149
g41
tp150
a((I67
g1
tp151
g20
tp152
a((I68
g1
tp153
g41
tp154
a((I69
g1
tp155
g15
tp156
a((I70
g1
tp157
g44
tp158
a((I71
g1
tp159
g141
tp160
a((I72
g1
tp161
g15
tp162
a((I73
g1
tp163
g12
tp164
a((I74
g1
tp165
g15
tp166
a((I75
g1
tp167
g6
tp168
a((I76
g1
tp169
g20
tp170
a((I77
g1
tp171
g20
tp172
a((I78
g1
tp173
g12
tp174
a((I79
g1
tp175
g9
tp176
a((I80
g1
tp177
g23
tp178
a((I81
g1
tp179
g126
tp180
a((I82
g1
tp181
g44
tp182
a((I83
g1
tp183
g141
tp184
a((I84
g1
tp185
g3
tp186
a((I85
g1
tp187
g15
tp188
a((I86
g1
tp189
g86
tp190
a((I87
g1
tp191
g86
tp192
a((I88
g1
tp193
g58
tp194
a((I89
g1
tp195
g9
tp196
a((I90
g1
tp197
g9
tp198
a((I91
g1
tp199
g141
tp200
a((I92
g1
tp201
S'N'
p202
tp203
a((I93
g1
tp204
g202
tp205
a((I94
g1
tp206
g86
tp207
a((I95
g1
tp208
g23
tp209
a((I96
g1
tp210
g12
tp211
a((I97
g1
tp212
g15
tp213
a((I98
g1
tp214
g141
tp215
a((I99
g1
tp216
g41
tp217
a((I100
g1
tp218
g41
tp219
a((I101
g1
tp220
g41
tp221
a((I102
g1
tp222
g15
tp223
a((I103
g1
tp224
g93
tp225
a((I104
g1
tp226
g38
tp227
a((I105
g1
tp228
g126
tp229
a((I106
g1
tp230
g6
tp231
a((I107
g1
tp232
g93
tp233
a.