(lp0
((I1
S' '
p1
tp2
S'D'
p3
tp4
a((I2
g1
tp5
S'I'
p6
tp7
a((I3
g1
tp8
S'V'
p9
tp10
a((I4
g1
tp11
S'M'
p12
tp13
a((I5
g1
tp14
S'T'
p15
tp16
a((I6
g1
tp17
S'Q'
p18
tp19
a((I7
g1
tp20
S'H'
p21
tp22
a((I8
g1
tp23
S'L'
p24
tp25
a((I9
g1
tp26
g24
tp27
a((I10
g1
tp28
S'S'
p29
tp30
a((I11
g1
tp31
g24
tp32
a((I12
g1
tp33
S'P'
p34
tp35
a((I13
g1
tp36
g6
tp37
a((I14
g1
tp38
g34
tp39
a((I15
g1
tp40
g24
tp41
a((I16
g1
tp42
S'G'
p43
tp44
a((I17
g1
tp45
S'E'
p46
tp47
a((I18
g1
tp48
g34
tp49
a((I19
g1
tp50
S'A'
p51
tp52
a((I20
g1
tp53
g29
tp54
a((I21
g1
tp55
g6
tp56
a((I22
g1
tp57
g29
tp58
a((I23
g1
tp59
S'C'
p60
tp61
a((I24
g1
tp62
S'R'
p63
tp64
a((I25
g1
tp65
g29
tp66
a((I26
g1
tp67
g29
tp68
a((I27
g1
tp69
g18
tp70
a((I28
g1
tp71
g29
tp72
a((I29
g1
tp73
g24
tp74
a((I30
g1
tp75
g24
tp76
a((I30
g51
tp77
g21
tp78
a((I30
S'B'
p79
tp80
g29
tp81
a((I30
g60
tp82
g3
tp83
a((I30
g3
tp84
g43
tp85
a((I30
g46
tp86
S'N'
p87
tp88
a((I31
g1
tp89
g15
tp90
a((I32
g1
tp91
S'Y'
p92
tp93
a((I33
g1
tp94
g24
tp95
a((I34
g1
tp96
g3
tp97
a((I35
g1
tp98
S'W'
p99
tp100
a((I36
g1
tp101
g92
tp102
a((I37
g1
tp103
g24
tp104
a((I38
g1
tp105
g18
tp106
a((I39
g1
tp107
S'K'
p108
tp109
a((I40
g1
tp110
g34
tp111
a((I41
g1
tp112
g43
tp113
a((I42
g1
tp114
g18
tp115
a((I43
g1
tp116
g29
tp117
a((I44
g1
tp118
g34
tp119
a((I45
g1
tp120
g18
tp121
a((I46
g1
tp122
g24
tp123
a((I47
g1
tp124
g24
tp125
a((I48
g1
tp126
g6
tp127
a((I49
g1
tp128
g92
tp129
a((I50
g1
tp130
g15
tp131
a((I51
g1
tp132
g6
tp133
a((I52
g1
tp134
g29
tp135
a((I53
g1
tp136
g87
tp137
a((I54
g1
tp138
g108
tp139
a((I55
g1
tp140
S'F'
p141
tp142
a((I56
g1
tp143
g92
tp144
a((I57
g1
tp145
g43
tp146
a((I58
g1
tp147
g9
tp148
a((I59
g1
tp149
g34
tp150
a((I60
g1
tp151
g87
tp152
a((I61
g1
tp153
g108
tp154
a((I62
g1
tp155
g141
tp156
a((I63
g1
tp157
g29
tp158
a((I64
g1
tp159
g43
tp160
a((I65
g1
tp161
g29
tp162
a((I66
g1
tp163
g63
tp164
a((I67
g1
tp165
g29
tp166
a((I68
g1
tp167
g43
tp168
a((I69
g1
tp169
g15
tp170
a((I70
g1
tp171
g43
tp172
a((I71
g1
tp173
g141
tp174
a((I72
g1
tp175
g15
tp176
a((I73
g1
tp177
g24
tp178
a((I74
g1
tp179
g108
tp180
a((I75
g1
tp181
g141
tp182
a((I76
g1
tp183
g29
tp184
a((I77
g1
tp185
g108
tp186
a((I78
g1
tp187
g9
tp188
a((I79
g1
tp189
g46
tp190
a((I80
g1
tp191
g51
tp192
a((I81
g1
tp193
g46
tp194
a((I82
g1
tp195
g3
tp196
a((I83
g1
tp197
g9
tp198
a((I84
g1
tp199
g43
tp200
a((I85
g1
tp201
g9
tp202
a((I86
g1
tp203
g92
tp204
a((I87
g1
tp205
g60
tp206
a((I88
g1
tp207
g60
tp208
a((I89
g1
tp209
g46
tp210
a((I90
g1
tp211
g18
tp212
a((I91
g1
tp213
g43
tp214
a((I92
g1
tp215
g24
tp216
a((I93
g1
tp217
g18
tp218
a((I94
g1
tp219
g43
tp220
a((I95
g1
tp221
g34
tp222
a((I96
g1
tp223
g141
tp224
a((I97
g1
tp225
g15
tp226
a((I98
g1
tp227
g141
tp228
a((I99
g1
tp229
g43
tp230
a((I100
g1
tp231
g34
tp232
a((I101
g1
tp233
g43
tp234
a((I102
g1
tp235
g15
tp236
a((I103
g1
tp237
g108
tp238
a((I104
g1
tp239
g9
tp240
a((I105
g1
tp241
g3
tp242
a((I106
g1
tp243
g6
tp244
a((I107
g1
tp245
g108
tp246
a.