(lp0
((I1
S' '
p1
tp2
S'E'
p3
tp4
a((I2
g1
tp5
S'I'
p6
tp7
a((I3
g1
tp8
S'V'
p9
tp10
a((I4
g1
tp11
S'L'
p12
tp13
a((I5
g1
tp14
S'T'
p15
tp16
a((I6
g1
tp17
S'Q'
p18
tp19
a((I7
g1
tp20
S'S'
p21
tp22
a((I8
g1
tp23
S'P'
p24
tp25
a((I9
g1
tp26
S'G'
p27
tp28
a((I10
g1
tp29
g15
tp30
a((I11
g1
tp31
g12
tp32
a((I12
g1
tp33
g21
tp34
a((I13
g1
tp35
g12
tp36
a((I14
g1
tp37
g21
tp38
a((I15
g1
tp39
g24
tp40
a((I16
g1
tp41
g27
tp42
a((I17
g1
tp43
g3
tp44
a((I18
g1
tp45
S'R'
p46
tp47
a((I19
g1
tp48
S'A'
p49
tp50
a((I20
g1
tp51
g15
tp52
a((I21
g1
tp53
g12
tp54
a((I22
g1
tp55
g21
tp56
a((I23
g1
tp57
S'C'
p58
tp59
a((I24
g1
tp60
g46
tp61
a((I25
g1
tp62
g49
tp63
a((I26
g1
tp64
g21
tp65
a((I27
g1
tp66
g18
tp67
a((I28
g1
tp68
g21
tp69
a((I29
g1
tp70
g9
tp71
a((I30
g1
tp72
g21
tp73
a((I30
g49
tp74
g21
tp75
a((I31
g1
tp76
g21
tp77
a((I32
g1
tp78
S'Y'
p79
tp80
a((I33
g1
tp81
g12
tp82
a((I34
g1
tp83
g49
tp84
a((I35
g1
tp85
S'W'
p86
tp87
a((I36
g1
tp88
g79
tp89
a((I37
g1
tp90
g18
tp91
a((I38
g1
tp92
g18
tp93
a((I39
g1
tp94
S'K'
p95
tp96
a((I40
g1
tp97
g24
tp98
a((I41
g1
tp99
g27
tp100
a((I42
g1
tp101
g18
tp102
a((I43
g1
tp103
g49
tp104
a((I44
g1
tp105
g24
tp106
a((I45
g1
tp107
g46
tp108
a((I46
g1
tp109
g12
tp110
a((I47
g1
tp111
g12
tp112
a((I48
g1
tp113
g6
tp114
a((I49
g1
tp115
g79
tp116
a((I50
g1
tp117
g27
tp118
a((I51
g1
tp119
g49
tp120
a((I52
g1
tp121
g21
tp122
a((I53
g1
tp123
g21
tp124
a((I54
g1
tp125
g46
tp126
a((I55
g1
tp127
g49
tp128
a((I56
g1
tp129
g15
tp130
a((I57
g1
tp131
g27
tp132
a((I58
g1
tp133
g6
tp134
a((I59
g1
tp135
g24
tp136
a((I60
g1
tp137
S'D'
p138
tp139
a((I61
g1
tp140
g46
tp141
a((I62
g1
tp142
S'F'
p143
tp144
a((I63
g1
tp145
g21
tp146
a((I64
g1
tp147
g27
tp148
a((I65
g1
tp149
g21
tp150
a((I66
g1
tp151
g27
tp152
a((I67
g1
tp153
g21
tp154
a((I68
g1
tp155
g27
tp156
a((I69
g1
tp157
g15
tp158
a((I70
g1
tp159
g138
tp160
a((I71
g1
tp161
g143
tp162
a((I72
g1
tp163
g15
tp164
a((I73
g1
tp165
g12
tp166
a((I74
g1
tp167
g15
tp168
a((I75
g1
tp169
g6
tp170
a((I76
g1
tp171
g21
tp172
a((I77
g1
tp173
g46
tp174
a((I78
g1
tp175
g12
tp176
a((I79
g1
tp177
g3
tp178
a((I80
g1
tp179
g24
tp180
a((I81
g1
tp181
g3
tp182
a((I82
g1
tp183
g138
tp184
a((I83
g1
tp185
g143
tp186
a((I84
g1
tp187
g49
tp188
a((I85
g1
tp189
g9
tp190
a((I86
g1
tp191
g79
tp192
a((I87
g1
tp193
g79
tp194
a((I88
g1
tp195
g58
tp196
a((I89
g1
tp197
g18
tp198
a((I90
g1
tp199
g18
tp200
a((I91
g1
tp201
g79
tp202
a((I92
g1
tp203
g27
tp204
a((I93
g1
tp205
g21
tp206
a((I94
g1
tp207
g21
tp208
a((I95
g1
tp209
g24
tp210
a((I96
g1
tp211
g6
tp212
a((I97
g1
tp213
g15
tp214
a((I98
g1
tp215
g143
tp216
a((I99
g1
tp217
g27
tp218
a((I100
g1
tp219
g18
tp220
a((I101
g1
tp221
g27
tp222
a((I102
g1
tp223
g15
tp224
a((I103
g1
tp225
g46
tp226
a((I104
g1
tp227
g12
tp228
a((I105
g1
tp229
g3
tp230
a((I106
g1
tp231
g6
tp232
a((I107
g1
tp233
g95
tp234
a.