(lp0
((I1
S' '
p1
tp2
S'E'
p3
tp4
a((I2
g1
tp5
S'T'
p6
tp7
a((I3
g1
tp8
g6
tp9
a((I4
g1
tp10
S'L'
p11
tp12
a((I5
g1
tp13
g6
tp14
a((I6
g1
tp15
S'Q'
p16
tp17
a((I7
g1
tp18
S'S'
p19
tp20
a((I8
g1
tp21
S'P'
p22
tp23
a((I9
g1
tp24
S'A'
p25
tp26
a((I10
g1
tp27
S'F'
p28
tp29
a((I11
g1
tp30
S'M'
p31
tp32
a((I12
g1
tp33
g19
tp34
a((I13
g1
tp35
g25
tp36
a((I14
g1
tp37
g6
tp38
a((I15
g1
tp39
g22
tp40
a((I16
g1
tp41
S'G'
p42
tp43
a((I17
g1
tp44
S'D'
p45
tp46
a((I18
g1
tp47
S'K'
p48
tp49
a((I19
g1
tp50
S'V'
p51
tp52
a((I20
g1
tp53
S'N'
p54
tp55
a((I21
g1
tp56
S'I'
p57
tp58
a((I22
g1
tp59
g19
tp60
a((I23
g1
tp61
S'C'
p62
tp63
a((I24
g1
tp64
g48
tp65
a((I25
g1
tp66
g25
tp67
a((I26
g1
tp68
g19
tp69
a((I27
g1
tp70
g16
tp71
a((I28
g1
tp72
g45
tp73
a((I29
g1
tp74
g57
tp75
a((I30
g1
tp76
g45
tp77
a((I31
g1
tp78
g45
tp79
a((I32
g1
tp80
g45
tp81
a((I33
g1
tp82
g31
tp83
a((I34
g1
tp84
g54
tp85
a((I35
g1
tp86
S'W'
p87
tp88
a((I36
g1
tp89
S'Y'
p90
tp91
a((I37
g1
tp92
g16
tp93
a((I38
g1
tp94
g16
tp95
a((I39
g1
tp96
g48
tp97
a((I40
g1
tp98
g22
tp99
a((I41
g1
tp100
g42
tp101
a((I42
g1
tp102
g3
tp103
a((I43
g1
tp104
g25
tp105
a((I44
g1
tp106
g25
tp107
a((I45
g1
tp108
g57
tp109
a((I46
g1
tp110
g28
tp111
a((I47
g1
tp112
g57
tp113
a((I48
g1
tp114
g57
tp115
a((I49
g1
tp116
g16
tp117
a((I50
g1
tp118
g3
tp119
a((I51
g1
tp120
g25
tp121
a((I52
g1
tp122
g6
tp123
a((I53
g1
tp124
g6
tp125
a((I54
g1
tp126
g11
tp127
a((I55
g1
tp128
g51
tp129
a((I56
g1
tp130
g22
tp131
a((I57
g1
tp132
g42
tp133
a((I58
g1
tp134
g57
tp135
a((I59
g1
tp136
g22
tp137
a((I60
g1
tp138
g22
tp139
a((I61
g1
tp140
S'R'
p141
tp142
a((I62
g1
tp143
g28
tp144
a((I63
g1
tp145
g19
tp146
a((I64
g1
tp147
g42
tp148
a((I65
g1
tp149
g19
tp150
a((I66
g1
tp151
g42
tp152
a((I67
g1
tp153
g90
tp154
a((I68
g1
tp155
g42
tp156
a((I69
g1
tp157
g6
tp158
a((I70
g1
tp159
g45
tp160
a((I71
g1
tp161
g28
tp162
a((I72
g1
tp163
g6
tp164
a((I73
g1
tp165
g11
tp166
a((I74
g1
tp167
g6
tp168
a((I75
g1
tp169
g57
tp170
a((I76
g1
tp171
g54
tp172
a((I77
g1
tp173
g54
tp174
a((I78
g1
tp175
g57
tp176
a((I79
g1
tp177
g3
tp178
a((I80
g1
tp179
g19
tp180
a((I81
g1
tp181
g3
tp182
a((I82
g1
tp183
g45
tp184
a((I83
g1
tp185
g25
tp186
a((I84
g1
tp187
g25
tp188
a((I85
g1
tp189
g90
tp190
a((I86
g1
tp191
g90
tp192
a((I87
g1
tp193
g28
tp194
a((I88
g1
tp195
g62
tp196
a((I89
g1
tp197
g11
tp198
a((I90
g1
tp199
g16
tp200
a((I91
g1
tp201
S'H'
p202
tp203
a((I92
g1
tp204
g45
tp205
a((I93
g1
tp206
g54
tp207
a((I94
g1
tp208
g28
tp209
a((I95
g1
tp210
g22
tp211
a((I96
g1
tp212
g87
tp213
a((I97
g1
tp214
g6
tp215
a((I98
g1
tp216
g28
tp217
a((I99
g1
tp218
g42
tp219
a((I100
g1
tp220
g16
tp221
a((I101
g1
tp222
g42
tp223
a((I102
g1
tp224
g6
tp225
a((I103
g1
tp226
g48
tp227
a((I104
g1
tp228
g51
tp229
a((I105
g1
tp230
g3
tp231
a((I106
g1
tp232
g57
tp233
a((I107
g1
tp234
g48
tp235
a.