(lp0
((I1
S' '
p1
tp2
S'L'
p3
tp4
a((I2
g1
tp5
S'P'
p6
tp7
a((I3
g1
tp8
S'V'
p9
tp10
a((I4
g1
tp11
g3
tp12
a((I5
g1
tp13
S'T'
p14
tp15
a((I6
g1
tp16
S'Q'
p17
tp18
a((I7
g1
tp19
g6
tp20
a((I8
g1
tp21
g6
tp22
a((I9
g1
tp23
S'S'
p24
tp25
a((I10
g1
tp26
S'-'
p27
tp28
a((I11
g1
tp29
S'A'
p30
tp31
a((I12
g1
tp32
g24
tp33
a((I13
g1
tp34
g30
tp35
a((I14
g1
tp36
g3
tp37
a((I15
g1
tp38
g3
tp39
a((I16
g1
tp40
S'G'
p41
tp42
a((I17
g1
tp43
g30
tp44
a((I18
g1
tp45
g24
tp46
a((I19
g1
tp47
S'I'
p48
tp49
a((I20
g1
tp50
S'K'
p51
tp52
a((I21
g1
tp53
g3
tp54
a((I22
g1
tp55
g14
tp56
a((I23
g1
tp57
S'C'
p58
tp59
a((I24
g1
tp60
g14
tp61
a((I25
g1
tp62
g3
tp63
a((I26
g1
tp64
g24
tp65
a((I27
g1
tp66
g24
tp67
a((I28
g1
tp68
S'E'
p69
tp70
a((I29
g1
tp71
S'H'
p72
tp73
a((I30
g1
tp74
g24
tp75
a((I30
g30
tp76
g14
tp77
a((I31
g1
tp78
S'Y'
p79
tp80
a((I32
g1
tp81
g14
tp82
a((I33
g1
tp83
g48
tp84
a((I34
g1
tp85
g69
tp86
a((I35
g1
tp87
S'W'
p88
tp89
a((I36
g1
tp90
g79
tp91
a((I37
g1
tp92
g17
tp93
a((I38
g1
tp94
g17
tp95
a((I39
g1
tp96
S'R'
p97
tp98
a((I40
g1
tp99
g6
tp100
a((I41
g1
tp101
g41
tp102
a((I42
g1
tp103
g97
tp104
a((I43
g1
tp105
g24
tp106
a((I44
g1
tp107
g6
tp108
a((I45
g1
tp109
g17
tp110
a((I46
g1
tp111
g79
tp112
a((I47
g1
tp113
g48
tp114
a((I48
g1
tp115
S'M'
p116
tp117
a((I49
g1
tp118
g51
tp119
a((I50
g1
tp120
g9
tp121
a((I51
g1
tp122
g51
tp123
a((I52
g1
tp124
g24
tp125
a((I53
g1
tp126
S'D'
p127
tp128
a((I54
g1
tp129
g41
tp130
a((I54
g30
tp131
g24
tp132
a((I54
S'B'
p133
tp134
g72
tp135
a((I54
g58
tp136
g24
tp137
a((I54
g127
tp138
g51
tp139
a((I55
g1
tp140
g41
tp141
a((I56
g1
tp142
g127
tp143
a((I57
g1
tp144
g41
tp145
a((I58
g1
tp146
g48
tp147
a((I59
g1
tp148
g6
tp149
a((I60
g1
tp150
g127
tp151
a((I61
g1
tp152
g97
tp153
a((I62
g1
tp154
S'F'
p155
tp156
a((I63
g1
tp157
g116
tp158
a((I64
g1
tp159
g41
tp160
a((I65
g1
tp161
g24
tp162
a((I66
g1
tp163
g24
tp164
a((I67
g1
tp165
g24
tp166
a((I68
g1
tp167
g41
tp168
a((I69
g1
tp169
g30
tp170
a((I70
g1
tp171
g127
tp172
a((I71
g1
tp173
g97
tp174
a((I72
g1
tp175
g79
tp176
a((I73
g1
tp177
g3
tp178
a((I74
g1
tp179
g14
tp180
a((I75
g1
tp181
g155
tp182
a((I76
g1
tp183
g24
tp184
a((I77
g1
tp185
S'N'
p186
tp187
a((I78
g1
tp188
g3
tp189
a((I79
g1
tp190
g17
tp191
a((I80
g1
tp192
g24
tp193
a((I81
g1
tp194
g127
tp195
a((I82
g1
tp196
g127
tp197
a((I83
g1
tp198
g69
tp199
a((I84
g1
tp200
g30
tp201
a((I85
g1
tp202
g69
tp203
a((I86
g1
tp204
g79
tp205
a((I87
g1
tp206
g72
tp207
a((I88
g1
tp208
g58
tp209
a((I89
g1
tp210
g41
tp211
a((I90
g1
tp212
g69
tp213
a((I91
g1
tp214
g24
tp215
a((I92
g1
tp216
g72
tp217
a((I93
g1
tp218
g14
tp219
a((I94
g1
tp220
g48
tp221
a((I95
g1
tp222
g127
tp223
a((I95
g30
tp224
g41
tp225
a((I95
g133
tp226
g17
tp227
a((I95
g58
tp228
g9
tp229
a((I95
g127
tp230
g41
tp231
a((I96
g1
tp232
g155
tp233
a((I97
g1
tp234
g9
tp235
a((I98
g1
tp236
g155
tp237
a((I99
g1
tp238
g41
tp239
a((I100
g1
tp240
g41
tp241
a((I101
g1
tp242
g41
tp243
a((I102
g1
tp244
g14
tp245
a((I103
g1
tp246
g17
tp247
a((I104
g1
tp248
g3
tp249
a((I105
g1
tp250
g48
tp251
a((I106
g1
tp252
g48
tp253
a.