(lp0
((I1
S' '
p1
tp2
S'Q'
p3
tp4
a((I2
g1
tp5
S'A'
p6
tp7
a((I3
g1
tp8
S'V'
p9
tp10
a((I4
g1
tp11
g9
tp12
a((I5
g1
tp13
S'T'
p14
tp15
a((I6
g1
tp16
g3
tp17
a((I7
g1
tp18
S'E'
p19
tp20
a((I8
g1
tp21
S'P'
p22
tp23
a((I9
g1
tp24
S'S'
p25
tp26
a((I10
g1
tp27
S'-'
p28
tp29
a((I11
g1
tp30
S'L'
p31
tp32
a((I12
g1
tp33
g14
tp34
a((I13
g1
tp35
g9
tp36
a((I14
g1
tp37
g25
tp38
a((I15
g1
tp39
g22
tp40
a((I16
g1
tp41
S'G'
p42
tp43
a((I17
g1
tp44
g42
tp45
a((I18
g1
tp46
g14
tp47
a((I19
g1
tp48
g9
tp49
a((I20
g1
tp50
g14
tp51
a((I21
g1
tp52
g31
tp53
a((I22
g1
tp54
g14
tp55
a((I23
g1
tp56
S'C'
p57
tp58
a((I24
g1
tp59
g42
tp60
a((I25
g1
tp61
g25
tp62
a((I26
g1
tp63
g25
tp64
a((I27
g1
tp65
g14
tp66
a((I28
g1
tp67
g42
tp68
a((I29
g1
tp69
g6
tp70
a((I30
g1
tp71
g9
tp72
a((I30
g6
tp73
g14
tp74
a((I30
S'B'
p75
tp76
g25
tp77
a((I30
g57
tp78
g42
tp79
a((I31
g1
tp80
S'H'
p81
tp82
a((I32
g1
tp83
S'Y'
p84
tp85
a((I33
g1
tp86
g22
tp87
a((I34
g1
tp88
g84
tp89
a((I35
g1
tp90
S'W'
p91
tp92
a((I36
g1
tp93
S'F'
p94
tp95
a((I37
g1
tp96
g3
tp97
a((I38
g1
tp98
g3
tp99
a((I39
g1
tp100
S'K'
p101
tp102
a((I40
g1
tp103
g22
tp104
a((I41
g1
tp105
g42
tp106
a((I42
g1
tp107
g3
tp108
a((I43
g1
tp109
g6
tp110
a((I44
g1
tp111
g22
tp112
a((I45
g1
tp113
S'R'
p114
tp115
a((I46
g1
tp116
g14
tp117
a((I47
g1
tp118
g31
tp119
a((I48
g1
tp120
S'I'
p121
tp122
a((I49
g1
tp123
g84
tp124
a((I50
g1
tp125
S'D'
p126
tp127
a((I51
g1
tp128
g14
tp129
a((I52
g1
tp130
g25
tp131
a((I53
g1
tp132
S'N'
p133
tp134
a((I54
g1
tp135
g101
tp136
a((I55
g1
tp137
g81
tp138
a((I56
g1
tp139
g25
tp140
a((I57
g1
tp141
g91
tp142
a((I58
g1
tp143
g14
tp144
a((I59
g1
tp145
g22
tp146
a((I60
g1
tp147
g6
tp148
a((I61
g1
tp149
g114
tp150
a((I62
g1
tp151
g94
tp152
a((I63
g1
tp153
g25
tp154
a((I64
g1
tp155
g42
tp156
a((I65
g1
tp157
g25
tp158
a((I66
g1
tp159
g31
tp160
a((I67
g1
tp161
g31
tp162
a((I68
g1
tp163
g42
tp164
a((I69
g1
tp165
g42
tp166
a((I70
g1
tp167
g101
tp168
a((I71
g1
tp169
g6
tp170
a((I72
g1
tp171
g6
tp172
a((I73
g1
tp173
g31
tp174
a((I74
g1
tp175
g14
tp176
a((I75
g1
tp177
g31
tp178
a((I76
g1
tp179
g25
tp180
a((I77
g1
tp181
g42
tp182
a((I78
g1
tp183
g6
tp184
a((I79
g1
tp185
g3
tp186
a((I80
g1
tp187
g22
tp188
a((I81
g1
tp189
g19
tp190
a((I82
g1
tp191
g126
tp192
a((I83
g1
tp193
g19
tp194
a((I84
g1
tp195
g6
tp196
a((I85
g1
tp197
g19
tp198
a((I86
g1
tp199
g84
tp200
a((I87
g1
tp201
g84
tp202
a((I88
g1
tp203
g57
tp204
a((I89
g1
tp205
g31
tp206
a((I90
g1
tp207
g31
tp208
a((I91
g1
tp209
g25
tp210
a((I92
g1
tp211
g84
tp212
a((I93
g1
tp213
g25
tp214
a((I94
g1
tp215
g42
tp216
a((I95
g1
tp217
g6
tp218
a((I95
g6
tp219
g114
tp220
a((I96
g1
tp221
g133
tp222
a((I97
g1
tp223
g9
tp224
a((I98
g1
tp225
g94
tp226
a((I99
g1
tp227
g42
tp228
a((I100
g1
tp229
g25
tp230
a((I101
g1
tp231
g42
tp232
a((I102
g1
tp233
g14
tp234
a((I103
g1
tp235
g101
tp236
a((I104
g1
tp237
g9
tp238
a((I105
g1
tp239
g14
tp240
a((I106
g1
tp241
g9
tp242
a((I107
g1
tp243
g31
tp244
a.