(lp0
((I1
S' '
p1
tp2
S'Q'
p3
tp4
a((I2
g1
tp5
S'S'
p6
tp7
a((I3
g1
tp8
S'A'
p9
tp10
a((I4
g1
tp11
S'L'
p12
tp13
a((I5
g1
tp14
S'I'
p15
tp16
a((I6
g1
tp17
g3
tp18
a((I7
g1
tp19
S'P'
p20
tp21
a((I8
g1
tp22
g20
tp23
a((I9
g1
tp24
g6
tp25
a((I10
g1
tp26
S'-'
p27
tp28
a((I11
g1
tp29
S'V'
p30
tp31
a((I12
g1
tp32
g6
tp33
a((I13
g1
tp34
S'G'
p35
tp36
a((I14
g1
tp37
g6
tp38
a((I15
g1
tp39
g20
tp40
a((I16
g1
tp41
g35
tp42
a((I17
g1
tp43
g3
tp44
a((I18
g1
tp45
g6
tp46
a((I19
g1
tp47
g30
tp48
a((I20
g1
tp49
S'T'
p50
tp51
a((I21
g1
tp52
g15
tp53
a((I22
g1
tp54
g6
tp55
a((I23
g1
tp56
S'C'
p57
tp58
a((I24
g1
tp59
g50
tp60
a((I25
g1
tp61
g35
tp62
a((I26
g1
tp63
g50
tp64
a((I27
g1
tp65
g6
tp66
a((I28
g1
tp67
g6
tp68
a((I29
g1
tp69
S'D'
p70
tp71
a((I30
g1
tp72
g30
tp73
a((I30
g9
tp74
g35
tp75
a((I30
S'B'
p76
tp77
g6
tp78
a((I30
g57
tp79
S'Y'
p80
tp81
a((I31
g1
tp82
g70
tp83
a((I32
g1
tp84
g80
tp85
a((I33
g1
tp86
g30
tp87
a((I34
g1
tp88
g6
tp89
a((I35
g1
tp90
S'W'
p91
tp92
a((I36
g1
tp93
g80
tp94
a((I37
g1
tp95
g3
tp96
a((I38
g1
tp97
g3
tp98
a((I39
g1
tp99
S'H'
p100
tp101
a((I40
g1
tp102
g20
tp103
a((I41
g1
tp104
g35
tp105
a((I42
g1
tp106
g50
tp107
a((I43
g1
tp108
g30
tp109
a((I44
g1
tp110
g20
tp111
a((I45
g1
tp112
S'K'
p113
tp114
a((I46
g1
tp115
g20
tp116
a((I47
g1
tp117
S'M'
p118
tp119
a((I48
g1
tp120
g15
tp121
a((I49
g1
tp122
g80
tp123
a((I50
g1
tp124
S'N'
p125
tp126
a((I51
g1
tp127
g30
tp128
a((I52
g1
tp129
g125
tp130
a((I53
g1
tp131
g50
tp132
a((I54
g1
tp133
g3
tp134
a((I55
g1
tp135
g20
tp136
a((I56
g1
tp137
g6
tp138
a((I57
g1
tp139
g35
tp140
a((I58
g1
tp141
g30
tp142
a((I59
g1
tp143
g20
tp144
a((I60
g1
tp145
g70
tp146
a((I61
g1
tp147
S'R'
p148
tp149
a((I62
g1
tp150
S'F'
p151
tp152
a((I63
g1
tp153
g6
tp154
a((I64
g1
tp155
g35
tp156
a((I65
g1
tp157
g6
tp158
a((I66
g1
tp159
g113
tp160
a((I67
g1
tp161
g6
tp162
a((I68
g1
tp163
g35
tp164
a((I69
g1
tp165
g125
tp166
a((I70
g1
tp167
g50
tp168
a((I71
g1
tp169
g9
tp170
a((I72
g1
tp171
g6
tp172
a((I73
g1
tp173
g118
tp174
a((I74
g1
tp175
g50
tp176
a((I75
g1
tp177
g15
tp178
a((I76
g1
tp179
g6
tp180
a((I77
g1
tp181
g35
tp182
a((I78
g1
tp183
g12
tp184
a((I79
g1
tp185
g3
tp186
a((I80
g1
tp187
g9
tp188
a((I81
g1
tp189
S'E'
p190
tp191
a((I82
g1
tp192
g70
tp193
a((I83
g1
tp194
g190
tp195
a((I84
g1
tp196
g9
tp197
a((I85
g1
tp198
g70
tp199
a((I86
g1
tp200
g80
tp201
a((I87
g1
tp202
g57
tp203
a((I88
g1
tp204
g57
tp205
a((I89
g1
tp206
g6
tp207
a((I90
g1
tp208
g80
tp209
a((I91
g1
tp210
g50
tp211
a((I92
g1
tp212
g6
tp213
a((I93
g1
tp214
g6
tp215
a((I94
g1
tp216
g9
tp217
a((I95
g1
tp218
g50
tp219
a((I96
g1
tp220
g80
tp221
a((I97
g1
tp222
g30
tp223
a((I98
g1
tp224
g151
tp225
a((I99
g1
tp226
g35
tp227
a((I100
g1
tp228
g50
tp229
a((I101
g1
tp230
g35
tp231
a((I102
g1
tp232
g50
tp233
a((I103
g1
tp234
g113
tp235
a((I104
g1
tp236
g30
tp237
a((I105
g1
tp238
g50
tp239
a((I106
g1
tp240
g30
tp241
a((I107
g1
tp242
g12
tp243
a.