(lp0
((I1
S' '
p1
tp2
S'Q'
p3
tp4
a((I2
g1
tp5
S'P'
p6
tp7
a((I3
g1
tp8
S'V'
p9
tp10
a((I4
g1
tp11
S'L'
p12
tp13
a((I5
g1
tp14
S'T'
p15
tp16
a((I6
g1
tp17
g3
tp18
a((I7
g1
tp19
g6
tp20
a((I8
g1
tp21
g15
tp22
a((I9
g1
tp23
S'S'
p24
tp25
a((I10
g1
tp26
S'-'
p27
tp28
a((I11
g1
tp29
g12
tp30
a((I12
g1
tp31
g24
tp32
a((I13
g1
tp33
S'A'
p34
tp35
a((I14
g1
tp36
g24
tp37
a((I15
g1
tp38
g6
tp39
a((I16
g1
tp40
S'G'
p41
tp42
a((I17
g1
tp43
g34
tp44
a((I18
g1
tp45
g24
tp46
a((I19
g1
tp47
g34
tp48
a((I20
g1
tp49
S'R'
p50
tp51
a((I21
g1
tp52
g12
tp53
a((I22
g1
tp54
g15
tp55
a((I23
g1
tp56
S'C'
p57
tp58
a((I24
g1
tp59
g15
tp60
a((I25
g1
tp61
g12
tp62
a((I26
g1
tp63
g50
tp64
a((I27
g1
tp65
g24
tp66
a((I28
g1
tp67
g41
tp68
a((I29
g1
tp69
S'I'
p70
tp71
a((I30
g1
tp72
S'N'
p73
tp74
a((I30
g34
tp75
g12
tp76
a((I30
S'B'
p77
tp78
g41
tp79
a((I30
g57
tp80
g24
tp81
a((I31
g1
tp82
S'Y'
p83
tp84
a((I32
g1
tp85
g50
tp86
a((I33
g1
tp87
g70
tp88
a((I34
g1
tp89
S'F'
p90
tp91
a((I35
g1
tp92
S'W'
p93
tp94
a((I36
g1
tp95
g83
tp96
a((I37
g1
tp97
g3
tp98
a((I38
g1
tp99
g3
tp100
a((I39
g1
tp101
S'K'
p102
tp103
a((I40
g1
tp104
g6
tp105
a((I41
g1
tp106
S'E'
p107
tp108
a((I42
g1
tp109
g24
tp110
a((I43
g1
tp111
g6
tp112
a((I44
g1
tp113
g6
tp114
a((I45
g1
tp115
g50
tp116
a((I46
g1
tp117
g83
tp118
a((I47
g1
tp119
g12
tp120
a((I48
g1
tp121
g12
tp122
a((I49
g1
tp123
g24
tp124
a((I50
g1
tp125
g83
tp126
a((I51
g1
tp127
g83
tp128
a((I52
g1
tp129
g24
tp130
a((I53
g1
tp131
S'D'
p132
tp133
a((I54
g1
tp134
g24
tp135
a((I54
g34
tp136
g24
tp137
a((I54
g77
tp138
g102
tp139
a((I54
g57
tp140
S'H'
p141
tp142
a((I54
g132
tp143
g3
tp144
a((I55
g1
tp145
g41
tp146
a((I56
g1
tp147
g24
tp148
a((I57
g1
tp149
g41
tp150
a((I58
g1
tp151
g9
tp152
a((I59
g1
tp153
g6
tp154
a((I60
g1
tp155
g24
tp156
a((I61
g1
tp157
g50
tp158
a((I62
g1
tp159
g90
tp160
a((I63
g1
tp161
g24
tp162
a((I64
g1
tp163
g41
tp164
a((I65
g1
tp165
g24
tp166
a((I66
g1
tp167
g102
tp168
a((I66
g34
tp169
g132
tp170
a((I66
g77
tp171
g34
tp172
a((I67
g1
tp173
g24
tp174
a((I68
g1
tp175
g24
tp176
a((I69
g1
tp177
g73
tp178
a((I70
g1
tp179
g34
tp180
a((I71
g1
tp181
g41
tp182
a((I72
g1
tp183
g70
tp184
a((I73
g1
tp185
g12
tp186
a((I74
g1
tp187
g9
tp188
a((I75
g1
tp189
g70
tp190
a((I76
g1
tp191
g24
tp192
a((I77
g1
tp193
g41
tp194
a((I78
g1
tp195
g12
tp196
a((I79
g1
tp197
g3
tp198
a((I80
g1
tp199
g24
tp200
a((I81
g1
tp201
g107
tp202
a((I82
g1
tp203
g132
tp204
a((I83
g1
tp205
g107
tp206
a((I84
g1
tp207
g34
tp208
a((I85
g1
tp209
g132
tp210
a((I86
g1
tp211
g83
tp212
a((I87
g1
tp213
g83
tp214
a((I88
g1
tp215
g57
tp216
a((I89
g1
tp217
S'M'
p218
tp219
a((I90
g1
tp220
g70
tp221
a((I91
g1
tp222
g93
tp223
a((I92
g1
tp224
g141
tp225
a((I93
g1
tp226
g24
tp227
a((I94
g1
tp228
g24
tp229
a((I95
g1
tp230
g34
tp231
a((I95
g34
tp232
g24
tp233
a((I96
g1
tp234
g9
tp235
a((I97
g1
tp236
g9
tp237
a((I98
g1
tp238
g90
tp239
a((I99
g1
tp240
g41
tp241
a((I100
g1
tp242
g41
tp243
a((I101
g1
tp244
g41
tp245
a((I102
g1
tp246
g15
tp247
a((I103
g1
tp248
g102
tp249
a((I104
g1
tp250
g12
tp251
a((I105
g1
tp252
g15
tp253
a((I106
g1
tp254
g9
tp255
a((I107
g1
tp256
g12
tp257
a.