(lp0
((I1
S' '
p1
tp2
S'Q'
p3
tp4
a((I2
g1
tp5
S'S'
p6
tp7
a((I3
g1
tp8
S'V'
p9
tp10
a((I4
g1
tp11
S'L'
p12
tp13
a((I5
g1
tp14
S'T'
p15
tp16
a((I6
g1
tp17
g3
tp18
a((I7
g1
tp19
S'P'
p20
tp21
a((I8
g1
tp22
S'R'
p23
tp24
a((I9
g1
tp25
g6
tp26
a((I10
g1
tp27
S'-'
p28
tp29
a((I11
g1
tp30
g9
tp31
a((I12
g1
tp32
g6
tp33
a((I13
g1
tp34
g23
tp35
a((I14
g1
tp36
g6
tp37
a((I15
g1
tp38
g20
tp39
a((I16
g1
tp40
S'G'
p41
tp42
a((I17
g1
tp43
g3
tp44
a((I18
g1
tp45
g28
tp46
a((I19
g1
tp47
g9
tp48
a((I20
g1
tp49
g15
tp50
a((I21
g1
tp51
S'I'
p52
tp53
a((I22
g1
tp54
S'F'
p55
tp56
a((I23
g1
tp57
S'C'
p58
tp59
a((I24
g1
tp60
g15
tp61
a((I25
g1
tp62
g41
tp63
a((I26
g1
tp64
g15
tp65
a((I27
g1
tp66
g6
tp67
a((I28
g1
tp68
g6
tp69
a((I29
g1
tp70
S'D'
p71
tp72
a((I30
g1
tp73
g52
tp74
a((I30
S'A'
p75
tp76
g41
tp77
a((I30
S'B'
p78
tp79
g41
tp80
a((I30
g58
tp81
S'Y'
p82
tp83
a((I31
g1
tp84
g71
tp85
a((I32
g1
tp86
g12
tp87
a((I33
g1
tp88
g9
tp89
a((I34
g1
tp90
g6
tp91
a((I35
g1
tp92
S'W'
p93
tp94
a((I36
g1
tp95
g58
tp96
a((I37
g1
tp97
g28
tp98
a((I38
g1
tp99
g3
tp100
a((I39
g1
tp101
S'H'
p102
tp103
a((I40
g1
tp104
g20
tp105
a((I41
g1
tp106
g41
tp107
a((I42
g1
tp108
S'K'
p109
tp110
a((I43
g1
tp111
g75
tp112
a((I44
g1
tp113
g20
tp114
a((I45
g1
tp115
g109
tp116
a((I46
g1
tp117
g12
tp118
a((I47
g1
tp119
S'M'
p120
tp121
a((I48
g1
tp122
g52
tp123
a((I49
g1
tp124
g82
tp125
a((I50
g1
tp126
g71
tp127
a((I51
g1
tp128
g9
tp129
a((I52
g1
tp130
g41
tp131
a((I53
g1
tp132
S'N'
p133
tp134
a((I54
g1
tp135
g93
tp136
a((I55
g1
tp137
g20
tp138
a((I56
g1
tp139
g6
tp140
a((I57
g1
tp141
g41
tp142
a((I58
g1
tp143
g75
tp144
a((I59
g1
tp145
g20
tp146
a((I60
g1
tp147
g41
tp148
a((I61
g1
tp149
g58
tp150
a((I62
g1
tp151
g55
tp152
a((I63
g1
tp153
g6
tp154
a((I64
g1
tp155
g41
tp156
a((I65
g1
tp157
g6
tp158
a((I66
g1
tp159
g109
tp160
a((I67
g1
tp161
g6
tp162
a((I68
g1
tp163
g41
tp164
a((I69
g1
tp165
g133
tp166
a((I70
g1
tp167
g15
tp168
a((I71
g1
tp169
g75
tp170
a((I72
g1
tp171
g6
tp172
a((I73
g1
tp173
g12
tp174
a((I74
g1
tp175
g15
tp176
a((I75
g1
tp177
g52
tp178
a((I76
g1
tp179
g6
tp180
a((I77
g1
tp181
g41
tp182
a((I78
g1
tp183
g12
tp184
a((I79
g1
tp185
g3
tp186
a((I80
g1
tp187
g75
tp188
a((I81
g1
tp189
S'E'
p190
tp191
a((I82
g1
tp192
g71
tp193
a((I83
g1
tp194
g190
tp195
a((I84
g1
tp196
g75
tp197
a((I85
g1
tp198
g71
tp199
a((I86
g1
tp200
g82
tp201
a((I87
g1
tp202
g82
tp203
a((I88
g1
tp204
g58
tp205
a((I89
g1
tp206
g6
tp207
a((I90
g1
tp208
g6
tp209
a((I91
g1
tp210
g82
tp211
a((I92
g1
tp212
g75
tp213
a((I93
g1
tp214
g41
tp215
a((I94
g1
tp216
g6
tp217
a((I95
g1
tp218
g82
tp219
a((I95
g75
tp220
g133
tp221
a((I95
g78
tp222
g55
tp223
a((I96
g1
tp224
g75
tp225
a((I97
g1
tp226
g9
tp227
a((I98
g1
tp228
g55
tp229
a((I99
g1
tp230
g41
tp231
a((I100
g1
tp232
g41
tp233
a((I101
g1
tp234
g41
tp235
a((I102
g1
tp236
g15
tp237
a((I103
g1
tp238
g3
tp239
a((I104
g1
tp240
g12
tp241
a((I105
g1
tp242
g15
tp243
a((I106
g1
tp244
g9
tp245
a((I107
g1
tp246
g12
tp247
a.