(lp0
((I1
S' '
p1
tp2
S'S'
p3
tp4
a((I2
g1
tp5
S'Y'
p6
tp7
a((I3
g1
tp8
S'E'
p9
tp10
a((I4
g1
tp11
S'L'
p12
tp13
a((I5
g1
tp14
S'T'
p15
tp16
a((I6
g1
tp17
S'Q'
p18
tp19
a((I7
g1
tp20
S'P'
p21
tp22
a((I8
g1
tp23
g21
tp24
a((I9
g1
tp25
g3
tp26
a((I10
g1
tp27
S'-'
p28
tp29
a((I11
g1
tp30
S'V'
p31
tp32
a((I12
g1
tp33
g3
tp34
a((I13
g1
tp35
g31
tp36
a((I14
g1
tp37
g3
tp38
a((I15
g1
tp39
g12
tp40
a((I16
g1
tp41
S'G'
p42
tp43
a((I17
g1
tp44
g18
tp45
a((I18
g1
tp46
S'M'
p47
tp48
a((I19
g1
tp49
S'A'
p50
tp51
a((I20
g1
tp52
S'R'
p53
tp54
a((I21
g1
tp55
S'I'
p56
tp57
a((I22
g1
tp58
g15
tp59
a((I23
g1
tp60
S'C'
p61
tp62
a((I24
g1
tp63
g3
tp64
a((I25
g1
tp65
g42
tp66
a((I26
g1
tp67
g9
tp68
a((I27
g1
tp69
g50
tp70
a((I28
g1
tp71
g12
tp72
a((I29
g1
tp73
g21
tp74
a((I30
g1
tp75
S'K'
p76
tp77
a((I31
g1
tp78
g76
tp79
a((I32
g1
tp80
g6
tp81
a((I33
g1
tp82
g50
tp83
a((I34
g1
tp84
g6
tp85
a((I35
g1
tp86
S'W'
p87
tp88
a((I36
g1
tp89
g6
tp90
a((I37
g1
tp91
g18
tp92
a((I38
g1
tp93
g18
tp94
a((I39
g1
tp95
g76
tp96
a((I40
g1
tp97
g21
tp98
a((I41
g1
tp99
g42
tp100
a((I42
g1
tp101
g18
tp102
a((I43
g1
tp103
S'F'
p104
tp105
a((I44
g1
tp106
g21
tp107
a((I45
g1
tp108
g31
tp109
a((I46
g1
tp110
g12
tp111
a((I47
g1
tp112
g31
tp113
a((I48
g1
tp114
g56
tp115
a((I49
g1
tp116
g6
tp117
a((I50
g1
tp118
g76
tp119
a((I51
g1
tp120
S'D'
p121
tp122
a((I52
g1
tp123
g3
tp124
a((I53
g1
tp125
g9
tp126
a((I54
g1
tp127
g53
tp128
a((I55
g1
tp129
g21
tp130
a((I56
g1
tp131
g3
tp132
a((I57
g1
tp133
g42
tp134
a((I58
g1
tp135
g56
tp136
a((I59
g1
tp137
g21
tp138
a((I60
g1
tp139
g9
tp140
a((I61
g1
tp141
g53
tp142
a((I62
g1
tp143
g104
tp144
a((I63
g1
tp145
g3
tp146
a((I64
g1
tp147
g42
tp148
a((I65
g1
tp149
g3
tp150
a((I66
g1
tp151
g3
tp152
a((I67
g1
tp153
g3
tp154
a((I68
g1
tp155
g42
tp156
a((I69
g1
tp157
g15
tp158
a((I70
g1
tp159
g56
tp160
a((I71
g1
tp161
g31
tp162
a((I72
g1
tp163
g15
tp164
a((I73
g1
tp165
g12
tp166
a((I74
g1
tp167
g15
tp168
a((I75
g1
tp169
g56
tp170
a((I76
g1
tp171
g3
tp172
a((I77
g1
tp173
g42
tp174
a((I78
g1
tp175
g31
tp176
a((I79
g1
tp177
g18
tp178
a((I80
g1
tp179
g50
tp180
a((I81
g1
tp181
g9
tp182
a((I82
g1
tp183
g121
tp184
a((I83
g1
tp185
g9
tp186
a((I84
g1
tp187
g50
tp188
a((I85
g1
tp189
g121
tp190
a((I86
g1
tp191
g6
tp192
a((I87
g1
tp193
g6
tp194
a((I88
g1
tp195
g61
tp196
a((I89
g1
tp197
g12
tp198
a((I90
g1
tp199
g3
tp200
a((I91
g1
tp201
g50
tp202
a((I92
g1
tp203
g121
tp204
a((I93
g1
tp205
g3
tp206
a((I94
g1
tp207
g3
tp208
a((I95
g1
tp209
g42
tp210
a((I95
g50
tp211
g15
tp212
a((I95
S'B'
p213
tp214
g6
tp215
a((I96
g1
tp216
g6
tp217
a((I97
g1
tp218
g31
tp219
a((I98
g1
tp220
g104
tp221
a((I99
g1
tp222
g42
tp223
a((I100
g1
tp224
g15
tp225
a((I101
g1
tp226
g42
tp227
a((I102
g1
tp228
g15
tp229
a((I103
g1
tp230
g76
tp231
a((I104
g1
tp232
g31
tp233
a((I105
g1
tp234
g15
tp235
a((I106
g1
tp236
g31
tp237
a((I107
g1
tp238
g12
tp239
a.