(lp0
((I1
S' '
p1
tp2
S'S'
p3
tp4
a((I2
g1
tp5
S'Y'
p6
tp7
a((I3
g1
tp8
S'E'
p9
tp10
a((I4
g1
tp11
S'L'
p12
tp13
a((I5
g1
tp14
S'T'
p15
tp16
a((I6
g1
tp17
S'Q'
p18
tp19
a((I7
g1
tp20
S'P'
p21
tp22
a((I8
g1
tp23
g21
tp24
a((I9
g1
tp25
S'A'
p26
tp27
a((I10
g1
tp28
S'-'
p29
tp30
a((I11
g1
tp31
S'V'
p32
tp33
a((I12
g1
tp34
g3
tp35
a((I13
g1
tp36
g32
tp37
a((I14
g1
tp38
g3
tp39
a((I15
g1
tp40
g21
tp41
a((I16
g1
tp42
S'G'
p43
tp44
a((I17
g1
tp45
g18
tp46
a((I18
g1
tp47
g15
tp48
a((I19
g1
tp49
g26
tp50
a((I20
g1
tp51
S'R'
p52
tp53
a((I21
g1
tp54
S'I'
p55
tp56
a((I22
g1
tp57
g3
tp58
a((I23
g1
tp59
S'C'
p60
tp61
a((I24
g1
tp62
g3
tp63
a((I25
g1
tp64
g43
tp65
a((I26
g1
tp66
S'D'
p67
tp68
a((I27
g1
tp69
g32
tp70
a((I28
g1
tp71
g12
tp72
a((I29
g1
tp73
g52
tp74
a((I30
g1
tp75
g67
tp76
a((I31
g1
tp77
S'N'
p78
tp79
a((I32
g1
tp80
g6
tp81
a((I33
g1
tp82
g26
tp83
a((I34
g1
tp84
g67
tp85
a((I35
g1
tp86
S'W'
p87
tp88
a((I36
g1
tp89
g6
tp90
a((I37
g1
tp91
g21
tp92
a((I38
g1
tp93
g18
tp94
a((I39
g1
tp95
S'K'
p96
tp97
a((I40
g1
tp98
g21
tp99
a((I41
g1
tp100
g43
tp101
a((I42
g1
tp102
g18
tp103
a((I43
g1
tp104
g26
tp105
a((I44
g1
tp106
g21
tp107
a((I45
g1
tp108
g32
tp109
a((I46
g1
tp110
g12
tp111
a((I47
g1
tp112
g32
tp113
a((I48
g1
tp114
g55
tp115
a((I49
g1
tp116
g6
tp117
a((I50
g1
tp118
g96
tp119
a((I51
g1
tp120
g67
tp121
a((I52
g1
tp122
g43
tp123
a((I53
g1
tp124
g9
tp125
a((I54
g1
tp126
g52
tp127
a((I55
g1
tp128
g21
tp129
a((I56
g1
tp130
g3
tp131
a((I57
g1
tp132
g43
tp133
a((I58
g1
tp134
g55
tp135
a((I59
g1
tp136
g21
tp137
a((I60
g1
tp138
g9
tp139
a((I61
g1
tp140
g52
tp141
a((I62
g1
tp142
S'F'
p143
tp144
a((I63
g1
tp145
g3
tp146
a((I64
g1
tp147
g43
tp148
a((I65
g1
tp149
g3
tp150
a((I66
g1
tp151
g15
tp152
a((I67
g1
tp153
g3
tp154
a((I68
g1
tp155
g43
tp156
a((I69
g1
tp157
g78
tp158
a((I70
g1
tp159
g15
tp160
a((I71
g1
tp161
g15
tp162
a((I72
g1
tp163
g26
tp164
a((I73
g1
tp165
g12
tp166
a((I74
g1
tp167
g15
tp168
a((I75
g1
tp169
g55
tp170
a((I76
g1
tp171
g3
tp172
a((I77
g1
tp173
g52
tp174
a((I78
g1
tp175
g32
tp176
a((I79
g1
tp177
g12
tp178
a((I80
g1
tp179
g15
tp180
a((I81
g1
tp181
g96
tp182
a((I82
g1
tp183
g43
tp184
a((I83
g1
tp185
g43
tp186
a((I84
g1
tp187
g26
tp188
a((I85
g1
tp189
g67
tp190
a((I86
g1
tp191
g6
tp192
a((I87
g1
tp193
g6
tp194
a((I88
g1
tp195
g60
tp196
a((I89
g1
tp197
g143
tp198
a((I90
g1
tp199
g3
tp200
a((I91
g1
tp201
g43
tp202
a((I92
g1
tp203
g67
tp204
a((I93
g1
tp205
g78
tp206
a((I94
g1
tp207
g78
tp208
a((I96
g1
tp209
g26
tp210
a((I97
g1
tp211
g32
tp212
a((I98
g1
tp213
g143
tp214
a((I99
g1
tp215
g43
tp216
a((I100
g1
tp217
g43
tp218
a((I101
g1
tp219
g43
tp220
a((I102
g1
tp221
g15
tp222
a((I103
g1
tp223
g18
tp224
a((I104
g1
tp225
g12
tp226
a((I105
g1
tp227
g15
tp228
a((I106
g1
tp229
g32
tp230
a((I107
g1
tp231
g12
tp232
a.