(lp0
((I1
S' '
p1
tp2
S'S'
p3
tp4
a((I2
g1
tp5
g3
tp6
a((I3
g1
tp7
S'E'
p8
tp9
a((I4
g1
tp10
S'L'
p11
tp12
a((I5
g1
tp13
g3
tp14
a((I6
g1
tp15
S'Q'
p16
tp17
a((I7
g1
tp18
g8
tp19
a((I8
g1
tp20
S'P'
p21
tp22
a((I9
g1
tp23
S'A'
p24
tp25
a((I10
g1
tp26
S'-'
p27
tp28
a((I11
g1
tp29
S'V'
p30
tp31
a((I12
g1
tp32
g3
tp33
a((I13
g1
tp34
g30
tp35
a((I14
g1
tp36
g24
tp37
a((I15
g1
tp38
g11
tp39
a((I16
g1
tp40
S'G'
p41
tp42
a((I17
g1
tp43
g27
tp44
a((I18
g1
tp45
S'T'
p46
tp47
a((I19
g1
tp48
g24
tp49
a((I20
g1
tp50
S'R'
p51
tp52
a((I21
g1
tp53
S'I'
p54
tp55
a((I22
g1
tp56
g46
tp57
a((I23
g1
tp58
S'C'
p59
tp60
a((I24
g1
tp61
g16
tp62
a((I25
g1
tp63
g41
tp64
a((I26
g1
tp65
S'D'
p66
tp67
a((I27
g1
tp68
g3
tp69
a((I28
g1
tp70
g54
tp71
a((I29
g1
tp72
g8
tp73
a((I30
g1
tp74
g66
tp75
a((I31
g1
tp76
g3
tp77
a((I32
g1
tp78
g30
tp79
a((I33
g1
tp80
g30
tp81
a((I34
g1
tp82
S'N'
p83
tp84
a((I35
g1
tp85
S'W'
p86
tp87
a((I36
g1
tp88
S'Y'
p89
tp90
a((I37
g1
tp91
S'K'
p92
tp93
a((I38
g1
tp94
g16
tp95
a((I39
g1
tp96
g92
tp97
a((I40
g1
tp98
g21
tp99
a((I41
g1
tp100
g3
tp101
a((I42
g1
tp102
g16
tp103
a((I43
g1
tp104
g24
tp105
a((I44
g1
tp106
g21
tp107
a((I45
g1
tp108
g41
tp109
a((I46
g1
tp110
g11
tp111
a((I47
g1
tp112
g30
tp113
a((I48
g1
tp114
g54
tp115
a((I49
g1
tp116
g11
tp117
a((I50
g1
tp118
g83
tp119
a((I51
g1
tp120
g3
tp121
a((I52
g1
tp122
g30
tp123
a((I53
g1
tp124
g16
tp125
a((I55
g1
tp126
g3
tp127
a((I56
g1
tp128
g3
tp129
a((I57
g1
tp130
g41
tp131
a((I58
g1
tp132
g54
tp133
a((I59
g1
tp134
g21
tp135
a((I60
g1
tp136
g92
tp137
a((I61
g1
tp138
g92
tp139
a((I62
g1
tp140
S'F'
p141
tp142
a((I63
g1
tp143
g3
tp144
a((I64
g1
tp145
g41
tp146
a((I65
g1
tp147
g3
tp148
a((I66
g1
tp149
g3
tp150
a((I67
g1
tp151
g3
tp152
a((I68
g1
tp153
g41
tp154
a((I69
g1
tp155
g83
tp156
a((I70
g1
tp157
S'M'
p158
tp159
a((I71
g1
tp160
g24
tp161
a((I72
g1
tp162
g46
tp163
a((I73
g1
tp164
g11
tp165
a((I74
g1
tp166
g46
tp167
a((I75
g1
tp168
g54
tp169
a((I76
g1
tp170
g46
tp171
a((I77
g1
tp172
g41
tp173
a((I78
g1
tp174
g54
tp175
a((I79
g1
tp176
g16
tp177
a((I80
g1
tp178
g30
tp179
a((I81
g1
tp180
g8
tp181
a((I82
g1
tp182
g66
tp183
a((I83
g1
tp184
g92
tp185
a((I84
g1
tp186
g24
tp187
a((I85
g1
tp188
g66
tp189
a((I86
g1
tp190
g89
tp191
a((I87
g1
tp192
g89
tp193
a((I88
g1
tp194
g59
tp195
a((I89
g1
tp196
g16
tp197
a((I90
g1
tp198
g3
tp199
a((I91
g1
tp200
g86
tp201
a((I92
g1
tp202
g66
tp203
a((I93
g1
tp204
g3
tp205
a((I94
g1
tp206
g3
tp207
a((I95
g1
tp208
g51
tp209
a((I95
g24
tp210
g46
tp211
a((I95
S'B'
p212
tp213
S'H'
p214
tp215
a((I96
g1
tp216
g24
tp217
a((I97
g1
tp218
g30
tp219
a((I98
g1
tp220
g141
tp221
a((I99
g1
tp222
g41
tp223
a((I100
g1
tp224
g41
tp225
a((I101
g1
tp226
g41
tp227
a((I102
g1
tp228
g46
tp229
a((I103
g1
tp230
g16
tp231
a((I104
g1
tp232
g11
tp233
a((I105
g1
tp234
g46
tp235
a((I106
g1
tp236
g30
tp237
a((I107
g1
tp238
g11
tp239
a.