(lp0
((I1
S' '
p1
tp2
S'Q'
p3
tp4
a((I2
g1
tp5
S'S'
p6
tp7
a((I3
g1
tp8
S'V'
p9
tp10
a((I4
g1
tp11
S'L'
p12
tp13
a((I5
g1
tp14
S'T'
p15
tp16
a((I6
g1
tp17
g3
tp18
a((I7
g1
tp19
S'P'
p20
tp21
a((I8
g1
tp22
g20
tp23
a((I9
g1
tp24
g6
tp25
a((I10
g1
tp26
S'-'
p27
tp28
a((I11
g1
tp29
g9
tp30
a((I12
g1
tp31
g6
tp32
a((I13
g1
tp33
S'G'
p34
tp35
a((I14
g1
tp36
S'A'
p37
tp38
a((I15
g1
tp39
g20
tp40
a((I16
g1
tp41
g34
tp42
a((I17
g1
tp43
g3
tp44
a((I18
g1
tp45
S'R'
p46
tp47
a((I19
g1
tp48
g9
tp49
a((I20
g1
tp50
g15
tp51
a((I21
g1
tp52
S'I'
p53
tp54
a((I22
g1
tp55
g6
tp56
a((I23
g1
tp57
S'C'
p58
tp59
a((I24
g1
tp60
g15
tp61
a((I25
g1
tp62
g34
tp63
a((I26
g1
tp64
g6
tp65
a((I27
g1
tp66
g6
tp67
a((I28
g1
tp68
g6
tp69
a((I29
g1
tp70
S'N'
p71
tp72
a((I30
g1
tp73
g53
tp74
a((I30
g37
tp75
g34
tp76
a((I30
S'B'
p77
tp78
g37
tp79
a((I30
g58
tp80
g34
tp81
a((I31
g1
tp82
S'Y'
p83
tp84
a((I32
g1
tp85
S'D'
p86
tp87
a((I33
g1
tp88
g9
tp89
a((I34
g1
tp90
S'H'
p91
tp92
a((I35
g1
tp93
S'W'
p94
tp95
a((I36
g1
tp96
g83
tp97
a((I37
g1
tp98
g3
tp99
a((I38
g1
tp100
g3
tp101
a((I39
g1
tp102
g12
tp103
a((I40
g1
tp104
g20
tp105
a((I41
g1
tp106
g34
tp107
a((I42
g1
tp108
g15
tp109
a((I43
g1
tp110
g37
tp111
a((I44
g1
tp112
g20
tp113
a((I45
g1
tp114
S'K'
p115
tp116
a((I46
g1
tp117
g12
tp118
a((I47
g1
tp119
g12
tp120
a((I48
g1
tp121
g53
tp122
a((I49
g1
tp123
g83
tp124
a((I50
g1
tp125
g34
tp126
a((I51
g1
tp127
g71
tp128
a((I52
g1
tp129
g6
tp130
a((I53
g1
tp131
g71
tp132
a((I54
g1
tp133
g46
tp134
a((I55
g1
tp135
g20
tp136
a((I56
g1
tp137
g6
tp138
a((I57
g1
tp139
g34
tp140
a((I58
g1
tp141
g9
tp142
a((I59
g1
tp143
g20
tp144
a((I60
g1
tp145
g86
tp146
a((I61
g1
tp147
g46
tp148
a((I62
g1
tp149
S'F'
p150
tp151
a((I63
g1
tp152
g6
tp153
a((I64
g1
tp154
g34
tp155
a((I65
g1
tp156
g6
tp157
a((I66
g1
tp158
g115
tp159
a((I67
g1
tp160
g6
tp161
a((I68
g1
tp162
g34
tp163
a((I69
g1
tp164
g15
tp165
a((I70
g1
tp166
g6
tp167
a((I71
g1
tp168
g37
tp169
a((I72
g1
tp170
g6
tp171
a((I73
g1
tp172
g12
tp173
a((I74
g1
tp174
g37
tp175
a((I75
g1
tp176
g53
tp177
a((I76
g1
tp178
g15
tp179
a((I77
g1
tp180
g34
tp181
a((I78
g1
tp182
g12
tp183
a((I79
g1
tp184
g3
tp185
a((I80
g1
tp186
g37
tp187
a((I81
g1
tp188
S'E'
p189
tp190
a((I82
g1
tp191
g86
tp192
a((I83
g1
tp193
g189
tp194
a((I84
g1
tp195
g37
tp196
a((I85
g1
tp197
g86
tp198
a((I86
g1
tp199
g83
tp200
a((I87
g1
tp201
g83
tp202
a((I88
g1
tp203
g58
tp204
a((I89
g1
tp205
g3
tp206
a((I90
g1
tp207
g6
tp208
a((I91
g1
tp209
g83
tp210
a((I92
g1
tp211
g86
tp212
a((I93
g1
tp213
g6
tp214
a((I94
g1
tp215
g6
tp216
a((I95
g1
tp217
g12
tp218
a((I95
g37
tp219
g6
tp220
a((I95
g77
tp221
g34
tp222
a((I96
g1
tp223
g37
tp224
a((I97
g1
tp225
g9
tp226
a((I98
g1
tp227
g150
tp228
a((I99
g1
tp229
g34
tp230
a((I100
g1
tp231
g34
tp232
a((I101
g1
tp233
g34
tp234
a((I102
g1
tp235
g15
tp236
a((I103
g1
tp237
g3
tp238
a((I104
g1
tp239
g12
tp240
a((I105
g1
tp241
g15
tp242
a((I106
g1
tp243
g9
tp244
a((I107
g1
tp245
g12
tp246
a.