(lp0
((I1
S' '
p1
tp2
S'R'
p3
tp4
a((I2
g1
tp5
S'P'
p6
tp7
a((I3
g1
tp8
S'V'
p9
tp10
a((I4
g1
tp11
S'L'
p12
tp13
a((I5
g1
tp14
S'T'
p15
tp16
a((I6
g1
tp17
S'Q'
p18
tp19
a((I7
g1
tp20
g6
tp21
a((I8
g1
tp22
g6
tp23
a((I9
g1
tp24
S'S'
p25
tp26
a((I10
g1
tp27
S'-'
p28
tp29
a((I11
g1
tp30
g12
tp31
a((I12
g1
tp32
g25
tp33
a((I13
g1
tp34
S'A'
p35
tp36
a((I14
g1
tp37
g25
tp38
a((I15
g1
tp39
g6
tp40
a((I16
g1
tp41
S'G'
p42
tp43
a((I17
g1
tp44
g35
tp45
a((I18
g1
tp46
g15
tp47
a((I19
g1
tp48
g35
tp49
a((I20
g1
tp50
g3
tp51
a((I21
g1
tp52
g12
tp53
a((I22
g1
tp54
g6
tp55
a((I23
g1
tp56
S'C'
p57
tp58
a((I24
g1
tp59
g15
tp60
a((I25
g1
tp61
g12
tp62
a((I26
g1
tp63
g25
tp64
a((I27
g1
tp65
g25
tp66
a((I28
g1
tp67
S'D'
p68
tp69
a((I29
g1
tp70
g12
tp71
a((I30
g1
tp72
g25
tp73
a((I30
g35
tp74
g9
tp75
a((I30
S'B'
p76
tp77
g42
tp78
a((I30
g57
tp79
g42
tp80
a((I31
g1
tp81
S'K'
p82
tp83
a((I32
g1
tp84
S'N'
p85
tp86
a((I33
g1
tp87
S'M'
p88
tp89
a((I34
g1
tp90
S'F'
p91
tp92
a((I35
g1
tp93
S'W'
p94
tp95
a((I36
g1
tp96
S'Y'
p97
tp98
a((I37
g1
tp99
g18
tp100
a((I38
g1
tp101
g18
tp102
a((I39
g1
tp103
g82
tp104
a((I40
g1
tp105
g6
tp106
a((I41
g1
tp107
g42
tp108
a((I42
g1
tp109
g25
tp110
a((I43
g1
tp111
g25
tp112
a((I44
g1
tp113
g6
tp114
a((I45
g1
tp115
g3
tp116
a((I46
g1
tp117
g12
tp118
a((I47
g1
tp119
g91
tp120
a((I48
g1
tp121
g12
tp122
a((I49
g1
tp123
g97
tp124
a((I50
g1
tp125
S'H'
p126
tp127
a((I51
g1
tp128
g97
tp129
a((I52
g1
tp130
g25
tp131
a((I53
g1
tp132
g68
tp133
a((I54
g1
tp134
g25
tp135
a((I54
g35
tp136
g68
tp137
a((I54
g76
tp138
g82
tp139
a((I54
g57
tp140
g18
tp141
a((I54
g68
tp142
g12
tp143
a((I55
g1
tp144
g42
tp145
a((I56
g1
tp146
g6
tp147
a((I57
g1
tp148
g42
tp149
a((I58
g1
tp150
g9
tp151
a((I59
g1
tp152
g6
tp153
a((I60
g1
tp154
g25
tp155
a((I61
g1
tp156
g3
tp157
a((I62
g1
tp158
g9
tp159
a((I63
g1
tp160
g25
tp161
a((I64
g1
tp162
g42
tp163
a((I65
g1
tp164
g25
tp165
a((I66
g1
tp166
g82
tp167
a((I66
g35
tp168
S'E'
p169
tp170
a((I66
g76
tp171
g15
tp172
a((I67
g1
tp173
g25
tp174
a((I68
g1
tp175
g25
tp176
a((I69
g1
tp177
g85
tp178
a((I70
g1
tp179
g15
tp180
a((I71
g1
tp181
g35
tp182
a((I72
g1
tp183
g91
tp184
a((I73
g1
tp185
g12
tp186
a((I74
g1
tp187
g12
tp188
a((I75
g1
tp189
S'I'
p190
tp191
a((I76
g1
tp192
g25
tp193
a((I77
g1
tp194
g42
tp195
a((I78
g1
tp196
g12
tp197
a((I79
g1
tp198
g18
tp199
a((I80
g1
tp200
g6
tp201
a((I81
g1
tp202
g169
tp203
a((I82
g1
tp204
g68
tp205
a((I83
g1
tp206
g169
tp207
a((I84
g1
tp208
g35
tp209
a((I85
g1
tp210
g68
tp211
a((I86
g1
tp212
g97
tp213
a((I87
g1
tp214
g97
tp215
a((I88
g1
tp216
g57
tp217
a((I89
g1
tp218
g18
tp219
a((I90
g1
tp220
g9
tp221
a((I91
g1
tp222
g97
tp223
a((I92
g1
tp224
g169
tp225
a((I93
g1
tp226
g25
tp227
a((I94
g1
tp228
g25
tp229
a((I95
g1
tp230
g35
tp231
a((I95
g35
tp232
g85
tp233
a((I96
g1
tp234
g9
tp235
a((I97
g1
tp236
g9
tp237
a((I98
g1
tp238
g91
tp239
a((I99
g1
tp240
g42
tp241
a((I100
g1
tp242
g42
tp243
a((I101
g1
tp244
g42
tp245
a((I102
g1
tp246
g15
tp247
a((I103
g1
tp248
g82
tp249
a((I104
g1
tp250
g12
tp251
a((I105
g1
tp252
g15
tp253
a((I106
g1
tp254
g9
tp255
a((I107
g1
tp256
g12
tp257
a.