(lp0
((I1
S' '
p1
tp2
S'Q'
p3
tp4
a((I2
g1
tp5
S'A'
p6
tp7
a((I3
g1
tp8
S'G'
p9
tp10
a((I4
g1
tp11
S'L'
p12
tp13
a((I5
g1
tp14
S'T'
p15
tp16
a((I6
g1
tp17
g3
tp18
a((I7
g1
tp19
S'P'
p20
tp21
a((I8
g1
tp22
g20
tp23
a((I9
g1
tp24
S'S'
p25
tp26
a((I10
g1
tp27
S'-'
p28
tp29
a((I11
g1
tp30
S'V'
p31
tp32
a((I12
g1
tp33
g25
tp34
a((I13
g1
tp35
S'K'
p36
tp37
a((I14
g1
tp38
g9
tp39
a((I15
g1
tp40
g12
tp41
a((I16
g1
tp42
S'R'
p43
tp44
a((I17
g1
tp45
g3
tp46
a((I18
g1
tp47
g15
tp48
a((I19
g1
tp49
g6
tp50
a((I20
g1
tp51
g15
tp52
a((I21
g1
tp53
g12
tp54
a((I22
g1
tp55
g15
tp56
a((I23
g1
tp57
S'C'
p58
tp59
a((I24
g1
tp60
g15
tp61
a((I25
g1
tp62
g9
tp63
a((I26
g1
tp64
S'N'
p65
tp66
a((I27
g1
tp67
g25
tp68
a((I28
g1
tp69
g65
tp70
a((I29
g1
tp71
g65
tp72
a((I30
g1
tp73
g31
tp74
a((I30
g6
tp75
g9
tp76
a((I30
S'B'
p77
tp78
g65
tp79
a((I31
g1
tp80
g3
tp81
a((I32
g1
tp82
g9
tp83
a((I33
g1
tp84
g6
tp85
a((I34
g1
tp86
g6
tp87
a((I35
g1
tp88
S'W'
p89
tp90
a((I36
g1
tp91
g12
tp92
a((I37
g1
tp93
g3
tp94
a((I38
g1
tp95
g3
tp96
a((I39
g1
tp97
S'H'
p98
tp99
a((I40
g1
tp100
g3
tp101
a((I41
g1
tp102
g9
tp103
a((I42
g1
tp104
g98
tp105
a((I43
g1
tp106
g20
tp107
a((I44
g1
tp108
g20
tp109
a((I45
g1
tp110
g36
tp111
a((I46
g1
tp112
g12
tp113
a((I47
g1
tp114
g12
tp115
a((I48
g1
tp116
g25
tp117
a((I49
g1
tp118
S'Y'
p119
tp120
a((I50
g1
tp121
g43
tp122
a((I51
g1
tp123
g65
tp124
a((I52
g1
tp125
g65
tp126
a((I53
g1
tp127
g65
tp128
a((I54
g1
tp129
g43
tp130
a((I55
g1
tp131
g20
tp132
a((I56
g1
tp133
g25
tp134
a((I57
g1
tp135
g9
tp136
a((I58
g1
tp137
S'I'
p138
tp139
a((I59
g1
tp140
g25
tp141
a((I60
g1
tp142
S'E'
p143
tp144
a((I61
g1
tp145
g43
tp146
a((I62
g1
tp147
g12
tp148
a((I63
g1
tp149
g25
tp150
a((I64
g1
tp151
g6
tp152
a((I65
g1
tp153
g25
tp154
a((I66
g1
tp155
g43
tp156
a((I67
g1
tp157
g25
tp158
a((I68
g1
tp159
g9
tp160
a((I69
g1
tp161
g65
tp162
a((I70
g1
tp163
g15
tp164
a((I71
g1
tp165
g6
tp166
a((I72
g1
tp167
g25
tp168
a((I73
g1
tp169
g12
tp170
a((I74
g1
tp171
g15
tp172
a((I75
g1
tp173
g138
tp174
a((I76
g1
tp175
g15
tp176
a((I77
g1
tp177
g9
tp178
a((I78
g1
tp179
g12
tp180
a((I79
g1
tp181
g3
tp182
a((I80
g1
tp183
g20
tp184
a((I81
g1
tp185
g143
tp186
a((I82
g1
tp187
S'D'
p188
tp189
a((I83
g1
tp190
g143
tp191
a((I84
g1
tp192
g6
tp193
a((I85
g1
tp194
g188
tp195
a((I86
g1
tp196
g119
tp197
a((I87
g1
tp198
g119
tp199
a((I88
g1
tp200
g58
tp201
a((I89
g1
tp202
g25
tp203
a((I90
g1
tp204
g6
tp205
a((I91
g1
tp206
g89
tp207
a((I92
g1
tp208
g188
tp209
a((I93
g1
tp210
g25
tp211
a((I94
g1
tp212
g25
tp213
a((I95
g1
tp214
g12
tp215
a((I95
g6
tp216
g25
tp217
a((I95
g77
tp218
g6
tp219
a((I96
g1
tp220
g65
tp221
a((I97
g1
tp222
g31
tp223
a((I98
g1
tp224
S'F'
p225
tp226
a((I99
g1
tp227
g9
tp228
a((I100
g1
tp229
g25
tp230
a((I101
g1
tp231
g9
tp232
a((I102
g1
tp233
g15
tp234
a((I103
g1
tp235
g36
tp236
a((I104
g1
tp237
g31
tp238
a((I105
g1
tp239
g15
tp240
a((I106
g1
tp241
g31
tp242
a((I107
g1
tp243
g12
tp244
a.