(lp0
((I1
S' '
p1
tp2
S'Q'
p3
tp4
a((I2
g1
tp5
S'P'
p6
tp7
a((I3
g1
tp8
S'V'
p9
tp10
a((I4
g1
tp11
S'L'
p12
tp13
a((I5
g1
tp14
S'T'
p15
tp16
a((I6
g1
tp17
g3
tp18
a((I7
g1
tp19
S'S'
p20
tp21
a((I8
g1
tp22
g20
tp23
a((I9
g1
tp24
g20
tp25
a((I10
g1
tp26
S'-'
p27
tp28
a((I11
g1
tp29
S'A'
p30
tp31
a((I12
g1
tp32
g20
tp33
a((I13
g1
tp34
g30
tp35
a((I14
g1
tp36
g20
tp37
a((I15
g1
tp38
g12
tp39
a((I16
g1
tp40
S'G'
p41
tp42
a((I17
g1
tp43
g20
tp44
a((I18
g1
tp45
g20
tp46
a((I19
g1
tp47
g9
tp48
a((I20
g1
tp49
S'K'
p50
tp51
a((I21
g1
tp52
g12
tp53
a((I22
g1
tp54
g15
tp55
a((I23
g1
tp56
S'C'
p57
tp58
a((I24
g1
tp59
g15
tp60
a((I25
g1
tp61
g12
tp62
a((I26
g1
tp63
g20
tp64
a((I27
g1
tp65
g20
tp66
a((I28
g1
tp67
g41
tp68
a((I29
g1
tp69
S'H'
p70
tp71
a((I30
g1
tp72
g20
tp73
a((I30
g30
tp74
g20
tp75
a((I31
g1
tp76
S'Y'
p77
tp78
a((I32
g1
tp79
S'I'
p80
tp81
a((I33
g1
tp82
g80
tp83
a((I34
g1
tp84
g30
tp85
a((I35
g1
tp86
S'W'
p87
tp88
a((I36
g1
tp89
g70
tp90
a((I37
g1
tp91
g3
tp92
a((I38
g1
tp93
g3
tp94
a((I39
g1
tp95
g3
tp96
a((I40
g1
tp97
g6
tp98
a((I41
g1
tp99
g41
tp100
a((I42
g1
tp101
g50
tp102
a((I43
g1
tp103
g30
tp104
a((I44
g1
tp105
g6
tp106
a((I45
g1
tp107
S'R'
p108
tp109
a((I46
g1
tp110
g77
tp111
a((I47
g1
tp112
g12
tp113
a((I48
g1
tp114
S'M'
p115
tp116
a((I49
g1
tp117
g50
tp118
a((I50
g1
tp119
g12
tp120
a((I51
g1
tp121
S'E'
p122
tp123
a((I52
g1
tp124
g41
tp125
a((I53
g1
tp126
g20
tp127
a((I54
g1
tp128
g41
tp129
a((I54
g30
tp130
g20
tp131
a((I54
S'B'
p132
tp133
g77
tp134
a((I54
g57
tp135
S'N'
p136
tp137
a((I54
S'D'
p138
tp139
g50
tp140
a((I55
g1
tp141
g41
tp142
a((I56
g1
tp143
g20
tp144
a((I57
g1
tp145
g41
tp146
a((I58
g1
tp147
g9
tp148
a((I59
g1
tp149
g6
tp150
a((I60
g1
tp151
g138
tp152
a((I61
g1
tp153
g108
tp154
a((I62
g1
tp155
S'F'
p156
tp157
a((I63
g1
tp158
g20
tp159
a((I64
g1
tp160
g41
tp161
a((I65
g1
tp162
g20
tp163
a((I66
g1
tp164
g20
tp165
a((I67
g1
tp166
g20
tp167
a((I68
g1
tp168
g41
tp169
a((I69
g1
tp170
g30
tp171
a((I70
g1
tp172
g138
tp173
a((I71
g1
tp174
g108
tp175
a((I72
g1
tp176
g77
tp177
a((I73
g1
tp178
g12
tp179
a((I74
g1
tp180
g15
tp181
a((I75
g1
tp182
g80
tp183
a((I76
g1
tp184
g20
tp185
a((I77
g1
tp186
g136
tp187
a((I78
g1
tp188
g12
tp189
a((I79
g1
tp190
g3
tp191
a((I80
g1
tp192
g12
tp193
a((I81
g1
tp194
g122
tp195
a((I82
g1
tp196
g138
tp197
a((I83
g1
tp198
g122
tp199
a((I84
g1
tp200
g30
tp201
a((I85
g1
tp202
g138
tp203
a((I86
g1
tp204
g77
tp205
a((I87
g1
tp206
g77
tp207
a((I88
g1
tp208
g57
tp209
a((I89
g1
tp210
g122
tp211
a((I90
g1
tp212
g15
tp213
a((I91
g1
tp214
g87
tp215
a((I92
g1
tp216
g138
tp217
a((I93
g1
tp218
g20
tp219
a((I94
g1
tp220
g136
tp221
a((I95
g1
tp222
g15
tp223
a((I96
g1
tp224
g9
tp225
a((I97
g1
tp226
g9
tp227
a((I98
g1
tp228
g156
tp229
a((I99
g1
tp230
g41
tp231
a((I100
g1
tp232
g41
tp233
a((I101
g1
tp234
g41
tp235
a((I102
g1
tp236
g15
tp237
a((I103
g1
tp238
g50
tp239
a((I104
g1
tp240
g12
tp241
a((I105
g1
tp242
g15
tp243
a((I106
g1
tp244
g9
tp245
a((I107
g1
tp246
g12
tp247
a.