(lp0
((I1
S' '
p1
tp2
S'S'
p3
tp4
a((I2
g1
tp5
S'Y'
p6
tp7
a((I3
g1
tp8
S'E'
p9
tp10
a((I4
g1
tp11
S'L'
p12
tp13
a((I5
g1
tp14
S'T'
p15
tp16
a((I6
g1
tp17
S'Q'
p18
tp19
a((I7
g1
tp20
S'P'
p21
tp22
a((I8
g1
tp23
S'H'
p24
tp25
a((I9
g1
tp26
g3
tp27
a((I10
g1
tp28
S'-'
p29
tp30
a((I11
g1
tp31
S'V'
p32
tp33
a((I12
g1
tp34
g3
tp35
a((I13
g1
tp36
g32
tp37
a((I14
g1
tp38
S'A'
p39
tp40
a((I15
g1
tp41
g15
tp42
a((I16
g1
tp43
g39
tp44
a((I17
g1
tp45
g18
tp46
a((I18
g1
tp47
S'M'
p48
tp49
a((I19
g1
tp50
g39
tp51
a((I20
g1
tp52
S'R'
p53
tp54
a((I21
g1
tp55
S'I'
p56
tp57
a((I22
g1
tp58
g15
tp59
a((I23
g1
tp60
S'C'
p61
tp62
a((I24
g1
tp63
S'G'
p64
tp65
a((I25
g1
tp66
g64
tp67
a((I26
g1
tp68
S'N'
p69
tp70
a((I27
g1
tp71
g69
tp72
a((I28
g1
tp73
g56
tp74
a((I29
g1
tp75
g64
tp76
a((I30
g1
tp77
g3
tp78
a((I31
g1
tp79
S'K'
p80
tp81
a((I32
g1
tp82
g39
tp83
a((I33
g1
tp84
g32
tp85
a((I34
g1
tp86
g24
tp87
a((I35
g1
tp88
S'W'
p89
tp90
a((I36
g1
tp91
g6
tp92
a((I37
g1
tp93
g18
tp94
a((I38
g1
tp95
g18
tp96
a((I39
g1
tp97
g80
tp98
a((I40
g1
tp99
g21
tp100
a((I41
g1
tp101
g64
tp102
a((I42
g1
tp103
g18
tp104
a((I43
g1
tp105
S'D'
p106
tp107
a((I44
g1
tp108
g21
tp109
a((I45
g1
tp110
g32
tp111
a((I46
g1
tp112
g12
tp113
a((I47
g1
tp114
g32
tp115
a((I48
g1
tp116
g56
tp117
a((I49
g1
tp118
g6
tp119
a((I50
g1
tp120
g3
tp121
a((I51
g1
tp122
g106
tp123
a((I52
g1
tp124
g3
tp125
a((I53
g1
tp126
g69
tp127
a((I54
g1
tp128
g53
tp129
a((I55
g1
tp130
g21
tp131
a((I56
g1
tp132
g3
tp133
a((I57
g1
tp134
g64
tp135
a((I58
g1
tp136
g56
tp137
a((I59
g1
tp138
g21
tp139
a((I60
g1
tp140
g9
tp141
a((I61
g1
tp142
g53
tp143
a((I62
g1
tp144
S'F'
p145
tp146
a((I63
g1
tp147
g3
tp148
a((I64
g1
tp149
g64
tp150
a((I65
g1
tp151
g3
tp152
a((I66
g1
tp153
g69
tp154
a((I67
g1
tp155
g21
tp156
a((I68
g1
tp157
g64
tp158
a((I69
g1
tp159
g69
tp160
a((I70
g1
tp161
g15
tp162
a((I71
g1
tp163
g15
tp164
a((I72
g1
tp165
g15
tp166
a((I73
g1
tp167
g12
tp168
a((I74
g1
tp169
g15
tp170
a((I75
g1
tp171
g56
tp172
a((I76
g1
tp173
g3
tp174
a((I77
g1
tp175
g53
tp176
a((I78
g1
tp177
g56
tp178
a((I79
g1
tp179
g9
tp180
a((I80
g1
tp181
g39
tp182
a((I81
g1
tp183
g64
tp184
a((I82
g1
tp185
g106
tp186
a((I83
g1
tp187
g9
tp188
a((I84
g1
tp189
g39
tp190
a((I85
g1
tp191
g106
tp192
a((I86
g1
tp193
g6
tp194
a((I87
g1
tp195
g6
tp196
a((I88
g1
tp197
g61
tp198
a((I89
g1
tp199
g18
tp200
a((I90
g1
tp201
g32
tp202
a((I91
g1
tp203
g89
tp204
a((I92
g1
tp205
g106
tp206
a((I93
g1
tp207
g3
tp208
a((I94
g1
tp209
g3
tp210
a((I95
g1
tp211
g3
tp212
a((I95
g39
tp213
g106
tp214
a((I95
S'B'
p215
tp216
g24
tp217
a((I96
g1
tp218
g145
tp219
a((I97
g1
tp220
g32
tp221
a((I98
g1
tp222
g145
tp223
a((I99
g1
tp224
g64
tp225
a((I100
g1
tp226
g64
tp227
a((I101
g1
tp228
g64
tp229
a((I102
g1
tp230
g15
tp231
a((I103
g1
tp232
g18
tp233
a((I104
g1
tp234
g12
tp235
a((I105
g1
tp236
g56
tp237
a((I106
g1
tp238
g56
tp239
a((I107
g1
tp240
g12
tp241
a.