(lp0
((I1
S' '
p1
tp2
S'S'
p3
tp4
a((I2
g1
tp5
S'Y'
p6
tp7
a((I3
g1
tp8
S'E'
p9
tp10
a((I4
g1
tp11
S'L'
p12
tp13
a((I5
g1
tp14
S'T'
p15
tp16
a((I6
g1
tp17
S'Q'
p18
tp19
a((I7
g1
tp20
S'P'
p21
tp22
a((I8
g1
tp23
g21
tp24
a((I9
g1
tp25
g3
tp26
a((I10
g1
tp27
S'-'
p28
tp29
a((I11
g1
tp30
S'V'
p31
tp32
a((I12
g1
tp33
g3
tp34
a((I13
g1
tp35
g31
tp36
a((I14
g1
tp37
g3
tp38
a((I15
g1
tp39
g21
tp40
a((I16
g1
tp41
S'G'
p42
tp43
a((I17
g1
tp44
g18
tp45
a((I18
g1
tp46
g15
tp47
a((I19
g1
tp48
S'A'
p49
tp50
a((I20
g1
tp51
g3
tp52
a((I21
g1
tp53
S'I'
p54
tp55
a((I22
g1
tp56
g15
tp57
a((I23
g1
tp58
S'C'
p59
tp60
a((I24
g1
tp61
g3
tp62
a((I25
g1
tp63
g42
tp64
a((I26
g1
tp65
S'D'
p66
tp67
a((I27
g1
tp68
S'K'
p69
tp70
a((I28
g1
tp71
g12
tp72
a((I29
g1
tp73
g42
tp74
a((I30
g1
tp75
g66
tp76
a((I31
g1
tp77
g69
tp78
a((I32
g1
tp79
g6
tp80
a((I33
g1
tp81
g49
tp82
a((I34
g1
tp83
g59
tp84
a((I35
g1
tp85
S'W'
p86
tp87
a((I36
g1
tp88
g6
tp89
a((I37
g1
tp90
g18
tp91
a((I38
g1
tp92
g18
tp93
a((I39
g1
tp94
g69
tp95
a((I40
g1
tp96
g21
tp97
a((I41
g1
tp98
g42
tp99
a((I42
g1
tp100
g18
tp101
a((I43
g1
tp102
g3
tp103
a((I44
g1
tp104
g21
tp105
a((I45
g1
tp106
g31
tp107
a((I46
g1
tp108
g12
tp109
a((I47
g1
tp110
g31
tp111
a((I48
g1
tp112
g54
tp113
a((I49
g1
tp114
g6
tp115
a((I50
g1
tp116
g18
tp117
a((I51
g1
tp118
g66
tp119
a((I52
g1
tp120
g3
tp121
a((I53
g1
tp122
g69
tp123
a((I54
g1
tp124
S'R'
p125
tp126
a((I55
g1
tp127
g21
tp128
a((I56
g1
tp129
g3
tp130
a((I57
g1
tp131
g42
tp132
a((I58
g1
tp133
g54
tp134
a((I59
g1
tp135
g21
tp136
a((I60
g1
tp137
g9
tp138
a((I61
g1
tp139
g125
tp140
a((I62
g1
tp141
S'F'
p142
tp143
a((I63
g1
tp144
g3
tp145
a((I64
g1
tp146
g42
tp147
a((I65
g1
tp148
g3
tp149
a((I66
g1
tp150
S'N'
p151
tp152
a((I67
g1
tp153
g3
tp154
a((I68
g1
tp155
g42
tp156
a((I69
g1
tp157
g151
tp158
a((I70
g1
tp159
g15
tp160
a((I71
g1
tp161
g49
tp162
a((I72
g1
tp163
g15
tp164
a((I73
g1
tp165
g12
tp166
a((I74
g1
tp167
g15
tp168
a((I75
g1
tp169
g54
tp170
a((I76
g1
tp171
g3
tp172
a((I77
g1
tp173
g42
tp174
a((I78
g1
tp175
g15
tp176
a((I79
g1
tp177
g18
tp178
a((I80
g1
tp179
g49
tp180
a((I81
g1
tp181
S'M'
p182
tp183
a((I82
g1
tp184
g66
tp185
a((I83
g1
tp186
g9
tp187
a((I84
g1
tp188
g49
tp189
a((I85
g1
tp190
g66
tp191
a((I86
g1
tp192
g6
tp193
a((I87
g1
tp194
g6
tp195
a((I88
g1
tp196
g59
tp197
a((I89
g1
tp198
g18
tp199
a((I90
g1
tp200
g49
tp201
a((I91
g1
tp202
g86
tp203
a((I92
g1
tp204
g66
tp205
a((I93
g1
tp206
g3
tp207
a((I94
g1
tp208
g3
tp209
a((I95
g1
tp210
g15
tp211
a((I95
g49
tp212
g49
tp213
a((I96
g1
tp214
g142
tp215
a((I97
g1
tp216
g31
tp217
a((I98
g1
tp218
g142
tp219
a((I99
g1
tp220
g42
tp221
a((I100
g1
tp222
g42
tp223
a((I101
g1
tp224
g42
tp225
a((I102
g1
tp226
g15
tp227
a((I103
g1
tp228
g18
tp229
a((I104
g1
tp230
g12
tp231
a((I105
g1
tp232
g54
tp233
a((I106
g1
tp234
g54
tp235
a((I107
g1
tp236
g12
tp237
a.