(lp0
((I1
S' '
p1
tp2
S'Q'
p3
tp4
a((I2
g1
tp5
S'P'
p6
tp7
a((I3
g1
tp8
S'V'
p9
tp10
a((I4
g1
tp11
S'L'
p12
tp13
a((I5
g1
tp14
S'T'
p15
tp16
a((I6
g1
tp17
g3
tp18
a((I7
g1
tp19
g6
tp20
a((I8
g1
tp21
g6
tp22
a((I9
g1
tp23
S'S'
p24
tp25
a((I10
g1
tp26
S'-'
p27
tp28
a((I11
g1
tp29
S'A'
p30
tp31
a((I12
g1
tp32
g24
tp33
a((I13
g1
tp34
g30
tp35
a((I14
g1
tp36
g24
tp37
a((I15
g1
tp38
g12
tp39
a((I16
g1
tp40
S'G'
p41
tp42
a((I17
g1
tp43
g30
tp44
a((I18
g1
tp45
g24
tp46
a((I19
g1
tp47
g9
tp48
a((I20
g1
tp49
g15
tp50
a((I21
g1
tp51
g12
tp52
a((I22
g1
tp53
g15
tp54
a((I23
g1
tp55
S'C'
p56
tp57
a((I24
g1
tp58
g15
tp59
a((I25
g1
tp60
g12
tp61
a((I26
g1
tp62
g24
tp63
a((I27
g1
tp64
g24
tp65
a((I28
g1
tp66
g41
tp67
a((I29
g1
tp68
S'Y'
p69
tp70
a((I30
g1
tp71
g24
tp72
a((I30
g30
tp73
S'N'
p74
tp75
a((I31
g1
tp76
g69
tp77
a((I32
g1
tp78
S'K'
p79
tp80
a((I33
g1
tp81
g9
tp82
a((I34
g1
tp83
S'D'
p84
tp85
a((I35
g1
tp86
S'W'
p87
tp88
a((I36
g1
tp89
g69
tp90
a((I37
g1
tp91
g3
tp92
a((I38
g1
tp93
g3
tp94
a((I39
g1
tp95
S'R'
p96
tp97
a((I40
g1
tp98
g6
tp99
a((I41
g1
tp100
g41
tp101
a((I42
g1
tp102
g79
tp103
a((I43
g1
tp104
g41
tp105
a((I44
g1
tp106
g6
tp107
a((I45
g1
tp108
g96
tp109
a((I46
g1
tp110
S'F'
p111
tp112
a((I47
g1
tp113
g9
tp114
a((I48
g1
tp115
S'M'
p116
tp117
a((I49
g1
tp118
g96
tp119
a((I50
g1
tp120
g9
tp121
a((I51
g1
tp122
g41
tp123
a((I52
g1
tp124
g15
tp125
a((I53
g1
tp126
g41
tp127
a((I54
g1
tp128
g41
tp129
a((I54
g30
tp130
S'I'
p131
tp132
a((I54
S'B'
p133
tp134
g9
tp135
a((I54
g56
tp136
g41
tp137
a((I54
g84
tp138
g24
tp139
a((I54
S'E'
p140
tp141
g79
tp142
a((I55
g1
tp143
g41
tp144
a((I56
g1
tp145
g84
tp146
a((I57
g1
tp147
g41
tp148
a((I58
g1
tp149
g131
tp150
a((I59
g1
tp151
g6
tp152
a((I60
g1
tp153
g84
tp154
a((I61
g1
tp155
g96
tp156
a((I62
g1
tp157
g111
tp158
a((I63
g1
tp159
g24
tp160
a((I64
g1
tp161
g9
tp162
a((I65
g1
tp163
g12
tp164
a((I66
g1
tp165
g41
tp166
a((I67
g1
tp167
g24
tp168
a((I68
g1
tp169
g41
tp170
a((I69
g1
tp171
g12
tp172
a((I70
g1
tp173
g74
tp174
a((I71
g1
tp175
g96
tp176
a((I72
g1
tp177
g69
tp178
a((I73
g1
tp179
g12
tp180
a((I74
g1
tp181
g15
tp182
a((I75
g1
tp183
g131
tp184
a((I76
g1
tp185
g79
tp186
a((I77
g1
tp187
g74
tp188
a((I78
g1
tp189
g131
tp190
a((I79
g1
tp191
g3
tp192
a((I80
g1
tp193
g140
tp194
a((I81
g1
tp195
g140
tp196
a((I82
g1
tp197
g84
tp198
a((I83
g1
tp199
g140
tp200
a((I84
g1
tp201
g24
tp202
a((I85
g1
tp203
g84
tp204
a((I86
g1
tp205
g69
tp206
a((I87
g1
tp207
S'H'
p208
tp209
a((I88
g1
tp210
g56
tp211
a((I89
g1
tp212
g41
tp213
a((I90
g1
tp214
g30
tp215
a((I91
g1
tp216
g84
tp217
a((I92
g1
tp218
g208
tp219
a((I93
g1
tp220
g41
tp221
a((I94
g1
tp222
g24
tp223
a((I95
g1
tp224
g41
tp225
a((I95
g30
tp226
g24
tp227
a((I95
g133
tp228
g74
tp229
a((I95
g56
tp230
g111
tp231
a((I95
g84
tp232
g9
tp233
a((I96
g1
tp234
g87
tp235
a((I97
g1
tp236
g9
tp237
a((I98
g1
tp238
g111
tp239
a((I99
g1
tp240
g41
tp241
a((I100
g1
tp242
g140
tp243
a((I101
g1
tp244
g41
tp245
a((I102
g1
tp246
g15
tp247
a((I103
g1
tp248
g140
tp249
a((I104
g1
tp250
g12
tp251
a((I105
g1
tp252
g15
tp253
a((I106
g1
tp254
g9
tp255
a((I107
g1
tp256
g12
tp257
a.