(lp0
((I1
S' '
p1
tp2
S'N'
p3
tp4
a((I2
g1
tp5
S'F'
p6
tp7
a((I3
g1
tp8
S'M'
p9
tp10
a((I4
g1
tp11
S'L'
p12
tp13
a((I5
g1
tp14
S'T'
p15
tp16
a((I6
g1
tp17
S'Q'
p18
tp19
a((I7
g1
tp20
S'P'
p21
tp22
a((I8
g1
tp23
S'H'
p24
tp25
a((I9
g1
tp26
S'S'
p27
tp28
a((I10
g1
tp29
S'-'
p30
tp31
a((I11
g1
tp32
S'V'
p33
tp34
a((I12
g1
tp35
g27
tp36
a((I13
g1
tp37
S'E'
p38
tp39
a((I14
g1
tp40
g27
tp41
a((I15
g1
tp42
g21
tp43
a((I16
g1
tp44
S'G'
p45
tp46
a((I17
g1
tp47
S'K'
p48
tp49
a((I18
g1
tp50
g15
tp51
a((I19
g1
tp52
g33
tp53
a((I20
g1
tp54
g15
tp55
a((I21
g1
tp56
S'I'
p57
tp58
a((I22
g1
tp59
g27
tp60
a((I23
g1
tp61
S'C'
p62
tp63
a((I24
g1
tp64
g15
tp65
a((I25
g1
tp66
S'R'
p67
tp68
a((I26
g1
tp69
g27
tp70
a((I27
g1
tp71
g27
tp72
a((I28
g1
tp73
g45
tp74
a((I29
g1
tp75
g27
tp76
a((I30
g1
tp77
g57
tp78
a((I30
S'A'
p79
tp80
g79
tp81
a((I30
S'B'
p82
tp83
g27
tp84
a((I31
g1
tp85
g3
tp86
a((I32
g1
tp87
S'Y'
p88
tp89
a((I33
g1
tp90
g33
tp91
a((I34
g1
tp92
g18
tp93
a((I35
g1
tp94
S'W'
p95
tp96
a((I36
g1
tp97
g88
tp98
a((I37
g1
tp99
g18
tp100
a((I38
g1
tp101
g18
tp102
a((I39
g1
tp103
g67
tp104
a((I40
g1
tp105
g21
tp106
a((I41
g1
tp107
g45
tp108
a((I42
g1
tp109
g27
tp110
a((I43
g1
tp111
g27
tp112
a((I44
g1
tp113
g21
tp114
a((I45
g1
tp115
g15
tp116
a((I46
g1
tp117
g15
tp118
a((I47
g1
tp119
g33
tp120
a((I48
g1
tp121
g57
tp122
a((I49
g1
tp123
g88
tp124
a((I50
g1
tp125
g38
tp126
a((I51
g1
tp127
S'D'
p128
tp129
a((I52
g1
tp130
g3
tp131
a((I53
g1
tp132
g18
tp133
a((I54
g1
tp134
g67
tp135
a((I55
g1
tp136
g21
tp137
a((I56
g1
tp138
g27
tp139
a((I57
g1
tp140
g45
tp141
a((I58
g1
tp142
g33
tp143
a((I59
g1
tp144
g21
tp145
a((I60
g1
tp146
g128
tp147
a((I61
g1
tp148
g67
tp149
a((I62
g1
tp150
g6
tp151
a((I63
g1
tp152
g27
tp153
a((I64
g1
tp154
g45
tp155
a((I65
g1
tp156
g27
tp157
a((I66
g1
tp158
g57
tp159
a((I66
g79
tp160
g128
tp161
a((I66
g82
tp162
g27
tp163
a((I67
g1
tp164
g27
tp165
a((I68
g1
tp166
g27
tp167
a((I69
g1
tp168
g3
tp169
a((I70
g1
tp170
g27
tp171
a((I71
g1
tp172
g79
tp173
a((I72
g1
tp174
g27
tp175
a((I73
g1
tp176
g12
tp177
a((I74
g1
tp178
g15
tp179
a((I75
g1
tp180
g57
tp181
a((I76
g1
tp182
g27
tp183
a((I77
g1
tp184
g45
tp185
a((I78
g1
tp186
g12
tp187
a((I79
g1
tp188
g48
tp189
a((I80
g1
tp190
g15
tp191
a((I81
g1
tp192
g38
tp193
a((I82
g1
tp194
g128
tp195
a((I83
g1
tp196
g38
tp197
a((I84
g1
tp198
g79
tp199
a((I85
g1
tp200
g128
tp201
a((I86
g1
tp202
g88
tp203
a((I87
g1
tp204
g88
tp205
a((I88
g1
tp206
g62
tp207
a((I89
g1
tp208
g18
tp209
a((I90
g1
tp210
g27
tp211
a((I91
g1
tp212
g88
tp213
a((I92
g1
tp214
g128
tp215
a((I93
g1
tp216
g27
tp217
a((I94
g1
tp218
g27
tp219
a((I95
g1
tp220
g3
tp221
a((I96
g1
tp222
g88
tp223
a((I97
g1
tp224
g33
tp225
a((I98
g1
tp226
g6
tp227
a((I99
g1
tp228
g45
tp229
a((I100
g1
tp230
g15
tp231
a((I101
g1
tp232
g45
tp233
a((I102
g1
tp234
g15
tp235
a((I103
g1
tp236
g48
tp237
a((I104
g1
tp238
g33
tp239
a((I105
g1
tp240
g15
tp241
a((I106
g1
tp242
g33
tp243
a((I107
g1
tp244
g12
tp245
a.