(lp0
((I1
S' '
p1
tp2
S'S'
p3
tp4
a((I2
g1
tp5
S'Y'
p6
tp7
a((I3
g1
tp8
S'E'
p9
tp10
a((I4
g1
tp11
S'L'
p12
tp13
a((I5
g1
tp14
S'T'
p15
tp16
a((I6
g1
tp17
S'Q'
p18
tp19
a((I7
g1
tp20
S'P'
p21
tp22
a((I8
g1
tp23
g12
tp24
a((I9
g1
tp25
g3
tp26
a((I10
g1
tp27
S'-'
p28
tp29
a((I11
g1
tp30
S'V'
p31
tp32
a((I12
g1
tp33
g3
tp34
a((I13
g1
tp35
g31
tp36
a((I14
g1
tp37
S'A'
p38
tp39
a((I15
g1
tp40
g12
tp41
a((I16
g1
tp42
S'G'
p43
tp44
a((I17
g1
tp45
g18
tp46
a((I18
g1
tp47
g15
tp48
a((I19
g1
tp49
g38
tp50
a((I20
g1
tp51
S'R'
p52
tp53
a((I21
g1
tp54
S'I'
p55
tp56
a((I22
g1
tp57
g15
tp58
a((I23
g1
tp59
S'C'
p60
tp61
a((I24
g1
tp62
g43
tp63
a((I25
g1
tp64
g43
tp65
a((I26
g1
tp66
S'N'
p67
tp68
a((I27
g1
tp69
g67
tp70
a((I28
g1
tp71
g55
tp72
a((I29
g1
tp73
g43
tp74
a((I30
g1
tp75
g3
tp76
a((I31
g1
tp77
S'K'
p78
tp79
a((I32
g1
tp80
g67
tp81
a((I33
g1
tp82
g31
tp83
a((I34
g1
tp84
S'H'
p85
tp86
a((I35
g1
tp87
S'W'
p88
tp89
a((I36
g1
tp90
g6
tp91
a((I37
g1
tp92
g18
tp93
a((I38
g1
tp94
g18
tp95
a((I39
g1
tp96
g78
tp97
a((I40
g1
tp98
g21
tp99
a((I41
g1
tp100
g43
tp101
a((I42
g1
tp102
g18
tp103
a((I43
g1
tp104
g38
tp105
a((I44
g1
tp106
g21
tp107
a((I45
g1
tp108
g31
tp109
a((I46
g1
tp110
g12
tp111
a((I47
g1
tp112
g31
tp113
a((I48
g1
tp114
g55
tp115
a((I49
g1
tp116
g6
tp117
a((I50
g1
tp118
g52
tp119
a((I51
g1
tp120
S'D'
p121
tp122
a((I52
g1
tp123
g3
tp124
a((I53
g1
tp125
g67
tp126
a((I54
g1
tp127
g52
tp128
a((I55
g1
tp129
g21
tp130
a((I56
g1
tp131
g3
tp132
a((I57
g1
tp133
g43
tp134
a((I58
g1
tp135
g55
tp136
a((I59
g1
tp137
g21
tp138
a((I60
g1
tp139
g9
tp140
a((I61
g1
tp141
g52
tp142
a((I62
g1
tp143
S'F'
p144
tp145
a((I63
g1
tp146
g3
tp147
a((I64
g1
tp148
g43
tp149
a((I65
g1
tp150
g3
tp151
a((I66
g1
tp152
g67
tp153
a((I67
g1
tp154
g3
tp155
a((I68
g1
tp156
g43
tp157
a((I69
g1
tp158
g67
tp159
a((I70
g1
tp160
g15
tp161
a((I71
g1
tp162
g38
tp163
a((I72
g1
tp164
g15
tp165
a((I73
g1
tp166
g12
tp167
a((I74
g1
tp168
g15
tp169
a((I75
g1
tp170
g55
tp171
a((I76
g1
tp172
g3
tp173
a((I77
g1
tp174
g52
tp175
a((I78
g1
tp176
g38
tp177
a((I79
g1
tp178
g18
tp179
a((I80
g1
tp180
g38
tp181
a((I81
g1
tp182
g43
tp183
a((I82
g1
tp184
g121
tp185
a((I83
g1
tp186
g9
tp187
a((I84
g1
tp188
g38
tp189
a((I85
g1
tp190
g121
tp191
a((I86
g1
tp192
g6
tp193
a((I87
g1
tp194
g6
tp195
a((I88
g1
tp196
g60
tp197
a((I89
g1
tp198
g18
tp199
a((I90
g1
tp200
g31
tp201
a((I91
g1
tp202
g88
tp203
a((I92
g1
tp204
g121
tp205
a((I93
g1
tp206
g3
tp207
a((I94
g1
tp208
g3
tp209
a((I95
g1
tp210
g15
tp211
a((I95
g38
tp212
g38
tp213
a((I96
g1
tp214
g67
tp215
a((I97
g1
tp216
g31
tp217
a((I98
g1
tp218
g144
tp219
a((I99
g1
tp220
g43
tp221
a((I100
g1
tp222
g3
tp223
a((I101
g1
tp224
g43
tp225
a((I102
g1
tp226
g15
tp227
a((I103
g1
tp228
g78
tp229
a((I104
g1
tp230
g31
tp231
a((I105
g1
tp232
g15
tp233
a((I106
g1
tp234
g31
tp235
a((I107
g1
tp236
g12
tp237
a.