((dp0
(I51
S''
p1
S'H'
p2
tp3
(S'I'
p4
I00
tp5
s(I81
g1
g2
tp6
(S'Q'
p7
I00
tp8
s(I21
g1
g2
tp9
(S'S'
p10
I00
tp11
s(I60
g1
g2
tp12
(S'A'
p13
I00
tp14
s(I69
g1
g2
tp15
(g4
I00
tp16
s(I73
g1
g2
tp17
(S'N'
p18
I00
tp19
s(I32
g1
g2
tp20
(S'Y'
p21
S'H1'
p22
tp23
s(I49
g1
g2
tp24
(g10
I00
tp25
s(I52
g1
g2
tp26
(S'R'
p27
S'H2'
p28
tp29
s(I28
g1
g2
tp30
(S'T'
p31
g22
tp32
s(I97
g1
g2
tp33
(g27
S'H3'
p34
tp35
s(I100
g1
g2
tp36
(S'L'
p37
g34
tp38
s(I76
g1
g2
tp39
(g18
I00
tp40
s(I31
g1
g2
tp41
(S'D'
p42
g22
tp43
s(I68
g1
g2
tp44
(g31
I00
tp45
s(I79
g1
g2
tp46
(g21
I00
tp47
s(I55
g1
g2
tp48
(g42
g28
tp49
s(I59
g1
g2
tp50
(g21
I00
tp51
s(I38
g1
g2
tp52
(g27
I00
tp53
s(I100
g13
g2
tp54
(g21
g34
tp55
s(I107
g1
g2
tp56
(g31
I00
tp57
s(I47
g1
g2
tp58
(S'W'
p59
I00
tp60
s(I86
g1
g2
tp61
(g42
I00
tp62
s(I77
g1
g2
tp63
(g31
I00
tp64
s(I30
g1
g2
tp65
(g10
g22
tp66
s(I40
g1
g2
tp67
(g13
I00
tp68
s(I95
g1
g2
tp69
(g42
g34
tp70
s(I99
g1
g2
tp71
(S'P'
p72
g34
tp73
s(I58
g1
g2
tp74
(g21
I00
tp75
s(I75
g1
g2
tp76
(S'K'
p77
I00
tp78
s(I78
g1
g2
tp79
(g37
I00
tp80
s(I88
g1
g2
tp81
(g13
I00
tp82
s(I82
S'C'
p83
g2
tp84
(g37
I00
tp85
s(I54
g1
g2
tp86
(S'G'
p87
g28
tp88
s(I102
g1
g2
tp89
(S'V'
p90
g34
tp91
s(I80
g1
g2
tp92
(g37
I00
tp93
s(I56
g1
g2
tp94
(g10
g28
tp95
s(I41
g1
g2
tp96
(g72
I00
tp97
s(I17
g1
g2
tp98
(g10
I00
tp99
s(I20
g1
g2
tp100
(g37
I00
tp101
s(I94
g1
g2
tp102
(g27
I00
tp103
s(I104
g1
g2
tp104
(g87
I00
tp105
s(I89
g1
g2
tp106
(g90
I00
tp107
s(I65
g1
g2
tp108
(g87
I00
tp109
s(I18
g1
g2
tp110
(g37
I00
tp111
s(I57
g1
g2
tp112
(g31
I00
tp113
s(I103
g1
g2
tp114
(g59
I00
tp115
s(I36
g1
g2
tp116
(g59
I00
tp117
s(I100
S'B'
p118
g2
tp119
(S'M'
p120
g34
tp121
s(I66
g1
g2
tp122
(g27
I00
tp123
s(I105
g1
g2
tp124
(g77
I00
tp125
s(I84
g1
g2
tp126
(g13
I00
tp127
s(I27
g1
g2
tp128
(S'F'
p129
g22
tp130
s(I19
g1
g2
tp131
(g27
I00
tp132
s(I45
g1
g2
tp133
(g37
I00
tp134
s(I106
g1
g2
tp135
(g87
I00
tp136
s(I82
g1
g2
tp137
(g120
I00
tp138
s(I67
g1
g2
tp139
(g129
I00
tp140
s(I93
g1
g2
tp141
(g90
I00
tp142
s(I43
g1
g2
tp143
(g77
I00
tp144
s(I46
g1
g2
tp145
(S'E'
p146
I00
tp147
s(I37
g1
g2
tp148
(g90
I00
tp149
s(I22
g1
g2
tp150
(g83
I00
tp151
s(I91
g1
g2
tp152
(g21
I00
tp153
s(I85
g1
g2
tp154
(g146
I00
tp155
s(I35
g1
g2
tp156
(g10
I00
tp157
s(I61
g1
g2
tp158
(g42
I00
tp159
s(I48
g1
g2
tp160
(g90
I00
tp161
s(I24
g1
g2
tp162
(g13
I00
tp163
s(I44
g1
g2
tp164
(g87
I00
tp165
s(I83
g1
g2
tp166
(g27
I00
tp167
s(I109
g1
g2
tp168
(g90
I00
tp169
s(I96
g1
g2
tp170
(g37
g34
tp171
s(I113
g1
g2
tp172
(g10
I00
tp173
s(I52
g13
g2
tp174
(g2
g28
tp175
s(I62
g1
g2
tp176
(g10
I00
tp177
s(I72
g1
g2
tp178
(g42
I00
tp179
s(I82
g13
g2
tp180
(g18
I00
tp181
s(I92
g1
g2
tp182
(g83
I00
tp183
s(I110
g1
g2
tp184
(g4
I00
tp185
s(I101
g1
g2
tp186
(g42
g34
tp187
s(I64
g1
g2
tp188
(g77
I00
tp189
s(I23
g1
g2
tp190
(g13
I00
tp191
s(I25
g1
g2
tp192
(g10
I00
tp193
s(I112
g1
g2
tp194
(g10
I00
tp195
s(I71
g1
g2
tp196
(g27
I00
tp197
s(I34
g1
g2
tp198
(g120
I00
tp199
s(I108
g1
g2
tp200
(g31
I00
tp201
s(I63
g1
g2
tp202
(g90
I00
tp203
s(I39
g1
g2
tp204
(g7
I00
tp205
s(I26
g1
g2
tp206
(g87
g22
tp207
s(I111
g1
g2
tp208
(g90
I00
tp209
s(I87
g1
g2
tp210
(g31
I00
tp211
s(I74
g1
g2
tp212
(g10
I00
tp213
s(I50
g1
g2
tp214
(g31
I00
tp215
s(I70
g1
g2
tp216
(g10
I00
tp217
s(I82
g118
g2
tp218
(g10
I00
tp219
s(I98
g1
g2
tp220
(g129
g34
tp221
s(I42
g1
g2
tp222
(g87
I00
tp223
s(I53
g1
g2
tp224
(g10
g28
tp225
s(I29
g1
g2
tp226
(g129
g22
tp227
s(I90
g1
g2
tp228
(g21
I00
tp229
s(I33
g1
g2
tp230
(g10
I00
tp231
sg2
tp232
.